ARM GAS  C:\Users\Admin\AppData\Local\Temp\ccu4y80a.s 			page 1


   1              		.syntax unified
   2              		.cpu cortex-m0plus
   3              		.fpu softvfp
   4              		.eabi_attribute 20, 1
   5              		.eabi_attribute 21, 1
   6              		.eabi_attribute 23, 3
   7              		.eabi_attribute 24, 1
   8              		.eabi_attribute 25, 1
   9              		.eabi_attribute 26, 1
  10              		.eabi_attribute 30, 1
  11              		.eabi_attribute 34, 0
  12              		.eabi_attribute 18, 4
  13              		.thumb
  14              		.syntax unified
  15              		.file	"CapSense_Structure.c"
  16              		.text
  17              	.Ltext0:
  18              		.cfi_sections	.debug_frame
  19              		.section	.text.DsParseParamId,"ax",%progbits
  20              		.align	2
  21              		.code	16
  22              		.thumb_func
  23              		.type	DsParseParamId, %function
  24              	DsParseParamId:
  25              	.LFB2:
  26              		.file 1 "Generated_Source\\PSoC4\\CapSense_Structure.c"
   1:Generated_Source\PSoC4/CapSense_Structure.c **** /***************************************************************************//**
   2:Generated_Source\PSoC4/CapSense_Structure.c **** * \file CapSense_Structure.c
   3:Generated_Source\PSoC4/CapSense_Structure.c **** * \version 5.0
   4:Generated_Source\PSoC4/CapSense_Structure.c **** *
   5:Generated_Source\PSoC4/CapSense_Structure.c **** * \brief
   6:Generated_Source\PSoC4/CapSense_Structure.c **** *   This file defines the data structure global variables and provides implementation
   7:Generated_Source\PSoC4/CapSense_Structure.c **** *   for the high-level and low-level APIs of the Data Structure module.
   8:Generated_Source\PSoC4/CapSense_Structure.c **** *
   9:Generated_Source\PSoC4/CapSense_Structure.c **** * \see CapSense v5.0 Datasheet
  10:Generated_Source\PSoC4/CapSense_Structure.c **** *
  11:Generated_Source\PSoC4/CapSense_Structure.c **** *//*****************************************************************************
  12:Generated_Source\PSoC4/CapSense_Structure.c **** * Copyright (2016-2017), Cypress Semiconductor Corporation.
  13:Generated_Source\PSoC4/CapSense_Structure.c **** ********************************************************************************
  14:Generated_Source\PSoC4/CapSense_Structure.c **** * This software is owned by Cypress Semiconductor Corporation (Cypress) and is
  15:Generated_Source\PSoC4/CapSense_Structure.c **** * protected by and subject to worldwide patent protection (United States and
  16:Generated_Source\PSoC4/CapSense_Structure.c **** * foreign), United States copyright laws and international treaty provisions.
  17:Generated_Source\PSoC4/CapSense_Structure.c **** * Cypress hereby grants to licensee a personal, non-exclusive, non-transferable
  18:Generated_Source\PSoC4/CapSense_Structure.c **** * license to copy, use, modify, create derivative works of, and compile the
  19:Generated_Source\PSoC4/CapSense_Structure.c **** * Cypress Source Code and derivative works for the sole purpose of creating
  20:Generated_Source\PSoC4/CapSense_Structure.c **** * custom software in support of licensee product to be used only in conjunction
  21:Generated_Source\PSoC4/CapSense_Structure.c **** * with a Cypress integrated circuit as specified in the applicable agreement.
  22:Generated_Source\PSoC4/CapSense_Structure.c **** * Any reproduction, modification, translation, compilation, or representation of
  23:Generated_Source\PSoC4/CapSense_Structure.c **** * this software except as specified above is prohibited without the express
  24:Generated_Source\PSoC4/CapSense_Structure.c **** * written permission of Cypress.
  25:Generated_Source\PSoC4/CapSense_Structure.c **** *
  26:Generated_Source\PSoC4/CapSense_Structure.c **** * Disclaimer: CYPRESS MAKES NO WARRANTY OF ANY KIND, EXPRESS OR IMPLIED, WITH
  27:Generated_Source\PSoC4/CapSense_Structure.c **** * REGARD TO THIS MATERIAL, INCLUDING, BUT NOT LIMITED TO, THE IMPLIED
  28:Generated_Source\PSoC4/CapSense_Structure.c **** * WARRANTIES OF MERCHANTABILITY AND FITNESS FOR A PARTICULAR PURPOSE.
  29:Generated_Source\PSoC4/CapSense_Structure.c **** * Cypress reserves the right to make changes without further notice to the
  30:Generated_Source\PSoC4/CapSense_Structure.c **** * materials described herein. Cypress does not assume any liability arising out
  31:Generated_Source\PSoC4/CapSense_Structure.c **** * of the application or use of any product or circuit described herein. Cypress
ARM GAS  C:\Users\Admin\AppData\Local\Temp\ccu4y80a.s 			page 2


  32:Generated_Source\PSoC4/CapSense_Structure.c **** * does not authorize its products for use as critical components in life-support
  33:Generated_Source\PSoC4/CapSense_Structure.c **** * systems where a malfunction or failure may reasonably be expected to result in
  34:Generated_Source\PSoC4/CapSense_Structure.c **** * significant injury to the user. The inclusion of Cypress' product in a life-
  35:Generated_Source\PSoC4/CapSense_Structure.c **** * support systems application implies that the manufacturer assumes all risk of
  36:Generated_Source\PSoC4/CapSense_Structure.c **** * such use and in doing so indemnifies Cypress against all charges. Use may be
  37:Generated_Source\PSoC4/CapSense_Structure.c **** * limited by and subject to the applicable Cypress software license agreement.
  38:Generated_Source\PSoC4/CapSense_Structure.c **** *******************************************************************************/
  39:Generated_Source\PSoC4/CapSense_Structure.c **** 
  40:Generated_Source\PSoC4/CapSense_Structure.c **** #include <cytypes.h>
  41:Generated_Source\PSoC4/CapSense_Structure.c **** #include "CyLib.h"
  42:Generated_Source\PSoC4/CapSense_Structure.c **** #include "CapSense_Structure.h"
  43:Generated_Source\PSoC4/CapSense_Structure.c **** #include "CapSense_Configuration.h"
  44:Generated_Source\PSoC4/CapSense_Structure.c **** 
  45:Generated_Source\PSoC4/CapSense_Structure.c **** #if (0u != CapSense_ADC_EN)
  46:Generated_Source\PSoC4/CapSense_Structure.c ****     #include "CapSense_Adc.h"
  47:Generated_Source\PSoC4/CapSense_Structure.c **** #endif /* (0u != CapSense_ADC_EN) */
  48:Generated_Source\PSoC4/CapSense_Structure.c **** 
  49:Generated_Source\PSoC4/CapSense_Structure.c **** #if (CapSense_ENABLE == CapSense_SELF_TEST_EN)
  50:Generated_Source\PSoC4/CapSense_Structure.c ****     #include "CapSense_SelfTest.h"
  51:Generated_Source\PSoC4/CapSense_Structure.c **** #endif
  52:Generated_Source\PSoC4/CapSense_Structure.c **** 
  53:Generated_Source\PSoC4/CapSense_Structure.c **** #if (CapSense_ENABLE == CapSense_CENTROID_5X5_CSD_EN)
  54:Generated_Source\PSoC4/CapSense_Structure.c ****     #include "CapSense_AdvancedCentroid_LL.h"
  55:Generated_Source\PSoC4/CapSense_Structure.c **** #endif
  56:Generated_Source\PSoC4/CapSense_Structure.c **** 
  57:Generated_Source\PSoC4/CapSense_Structure.c **** #if (CapSense_ENABLE == CapSense_GES_GLOBAL_EN)
  58:Generated_Source\PSoC4/CapSense_Structure.c ****     #include "CapSense_Gesture.h"
  59:Generated_Source\PSoC4/CapSense_Structure.c **** #endif /* (CapSense_ENABLE == CapSense_GES_GLOBAL_EN) */
  60:Generated_Source\PSoC4/CapSense_Structure.c **** 
  61:Generated_Source\PSoC4/CapSense_Structure.c **** /*******************************************************************************
  62:Generated_Source\PSoC4/CapSense_Structure.c **** * Defines the RAM Data Structure variables and their init data in flash
  63:Generated_Source\PSoC4/CapSense_Structure.c **** *******************************************************************************/
  64:Generated_Source\PSoC4/CapSense_Structure.c **** /**
  65:Generated_Source\PSoC4/CapSense_Structure.c **** * \cond SECTION_GLOBAL_VARIABLES
  66:Generated_Source\PSoC4/CapSense_Structure.c **** * \addtogroup group_global_variables
  67:Generated_Source\PSoC4/CapSense_Structure.c **** * \{
  68:Generated_Source\PSoC4/CapSense_Structure.c **** */
  69:Generated_Source\PSoC4/CapSense_Structure.c **** 
  70:Generated_Source\PSoC4/CapSense_Structure.c **** /**
  71:Generated_Source\PSoC4/CapSense_Structure.c **** * The variable that contains the CapSense configuration, settings and
  72:Generated_Source\PSoC4/CapSense_Structure.c **** * scanning results. CapSense_dsRam represents RAM Data Structure.
  73:Generated_Source\PSoC4/CapSense_Structure.c **** */
  74:Generated_Source\PSoC4/CapSense_Structure.c **** CapSense_RAM_STRUCT CapSense_dsRam;
  75:Generated_Source\PSoC4/CapSense_Structure.c **** /** \}
  76:Generated_Source\PSoC4/CapSense_Structure.c **** * \endcond */
  77:Generated_Source\PSoC4/CapSense_Structure.c **** 
  78:Generated_Source\PSoC4/CapSense_Structure.c **** /*******************************************************************************
  79:Generated_Source\PSoC4/CapSense_Structure.c **** * Declares Widget's De-bounce Counters
  80:Generated_Source\PSoC4/CapSense_Structure.c **** *******************************************************************************/
  81:Generated_Source\PSoC4/CapSense_Structure.c **** static uint8 CapSense_debounceButton0[CapSense_BUTTON0_NUM_SENSORS];
  82:Generated_Source\PSoC4/CapSense_Structure.c **** static uint8 CapSense_debounceButton1[CapSense_BUTTON1_NUM_SENSORS];
  83:Generated_Source\PSoC4/CapSense_Structure.c **** static uint8 CapSense_debounceButton2[CapSense_BUTTON2_NUM_SENSORS];
  84:Generated_Source\PSoC4/CapSense_Structure.c **** static uint8 CapSense_debounceButton3[CapSense_BUTTON3_NUM_SENSORS];
  85:Generated_Source\PSoC4/CapSense_Structure.c **** static uint8 CapSense_debounceButton4[CapSense_BUTTON4_NUM_SENSORS];
  86:Generated_Source\PSoC4/CapSense_Structure.c **** static uint8 CapSense_debounceButton5[CapSense_BUTTON5_NUM_SENSORS];
  87:Generated_Source\PSoC4/CapSense_Structure.c **** static uint8 CapSense_debounceButton6[CapSense_BUTTON6_NUM_SENSORS];
  88:Generated_Source\PSoC4/CapSense_Structure.c **** static uint8 CapSense_debounceButton7[CapSense_BUTTON7_NUM_SENSORS];
ARM GAS  C:\Users\Admin\AppData\Local\Temp\ccu4y80a.s 			page 3


  89:Generated_Source\PSoC4/CapSense_Structure.c **** static uint8 CapSense_debounceButton8[CapSense_BUTTON8_NUM_SENSORS];
  90:Generated_Source\PSoC4/CapSense_Structure.c **** static uint8 CapSense_debounceButton9[CapSense_BUTTON9_NUM_SENSORS];
  91:Generated_Source\PSoC4/CapSense_Structure.c **** static uint8 CapSense_debounceButton10[CapSense_BUTTON10_NUM_SENSORS];
  92:Generated_Source\PSoC4/CapSense_Structure.c **** static uint8 CapSense_debounceButton11[CapSense_BUTTON11_NUM_SENSORS];
  93:Generated_Source\PSoC4/CapSense_Structure.c **** static uint8 CapSense_debounceButton12[CapSense_BUTTON12_NUM_SENSORS];
  94:Generated_Source\PSoC4/CapSense_Structure.c **** static uint8 CapSense_debounceButton13[CapSense_BUTTON13_NUM_SENSORS];
  95:Generated_Source\PSoC4/CapSense_Structure.c **** static uint8 CapSense_debounceButton14[CapSense_BUTTON14_NUM_SENSORS];
  96:Generated_Source\PSoC4/CapSense_Structure.c **** 
  97:Generated_Source\PSoC4/CapSense_Structure.c **** 
  98:Generated_Source\PSoC4/CapSense_Structure.c **** /***************************************************************************//**
  99:Generated_Source\PSoC4/CapSense_Structure.c **** * Declares Noise Envelope data structures
 100:Generated_Source\PSoC4/CapSense_Structure.c **** *******************************************************************************/
 101:Generated_Source\PSoC4/CapSense_Structure.c **** static SMARTSENSE_CSD_NOISE_ENVELOPE_STRUCT CapSense_noiseEnvlpButton0[CapSense_BUTTON0_NUM_SENSORS
 102:Generated_Source\PSoC4/CapSense_Structure.c **** static SMARTSENSE_CSD_NOISE_ENVELOPE_STRUCT CapSense_noiseEnvlpButton1[CapSense_BUTTON1_NUM_SENSORS
 103:Generated_Source\PSoC4/CapSense_Structure.c **** static SMARTSENSE_CSD_NOISE_ENVELOPE_STRUCT CapSense_noiseEnvlpButton2[CapSense_BUTTON2_NUM_SENSORS
 104:Generated_Source\PSoC4/CapSense_Structure.c **** static SMARTSENSE_CSD_NOISE_ENVELOPE_STRUCT CapSense_noiseEnvlpButton3[CapSense_BUTTON3_NUM_SENSORS
 105:Generated_Source\PSoC4/CapSense_Structure.c **** static SMARTSENSE_CSD_NOISE_ENVELOPE_STRUCT CapSense_noiseEnvlpButton4[CapSense_BUTTON4_NUM_SENSORS
 106:Generated_Source\PSoC4/CapSense_Structure.c **** static SMARTSENSE_CSD_NOISE_ENVELOPE_STRUCT CapSense_noiseEnvlpButton5[CapSense_BUTTON5_NUM_SENSORS
 107:Generated_Source\PSoC4/CapSense_Structure.c **** static SMARTSENSE_CSD_NOISE_ENVELOPE_STRUCT CapSense_noiseEnvlpButton6[CapSense_BUTTON6_NUM_SENSORS
 108:Generated_Source\PSoC4/CapSense_Structure.c **** static SMARTSENSE_CSD_NOISE_ENVELOPE_STRUCT CapSense_noiseEnvlpButton7[CapSense_BUTTON7_NUM_SENSORS
 109:Generated_Source\PSoC4/CapSense_Structure.c **** static SMARTSENSE_CSD_NOISE_ENVELOPE_STRUCT CapSense_noiseEnvlpButton8[CapSense_BUTTON8_NUM_SENSORS
 110:Generated_Source\PSoC4/CapSense_Structure.c **** static SMARTSENSE_CSD_NOISE_ENVELOPE_STRUCT CapSense_noiseEnvlpButton9[CapSense_BUTTON9_NUM_SENSORS
 111:Generated_Source\PSoC4/CapSense_Structure.c **** static SMARTSENSE_CSD_NOISE_ENVELOPE_STRUCT CapSense_noiseEnvlpButton10[CapSense_BUTTON10_NUM_SENSO
 112:Generated_Source\PSoC4/CapSense_Structure.c **** static SMARTSENSE_CSD_NOISE_ENVELOPE_STRUCT CapSense_noiseEnvlpButton11[CapSense_BUTTON11_NUM_SENSO
 113:Generated_Source\PSoC4/CapSense_Structure.c **** static SMARTSENSE_CSD_NOISE_ENVELOPE_STRUCT CapSense_noiseEnvlpButton12[CapSense_BUTTON12_NUM_SENSO
 114:Generated_Source\PSoC4/CapSense_Structure.c **** static SMARTSENSE_CSD_NOISE_ENVELOPE_STRUCT CapSense_noiseEnvlpButton13[CapSense_BUTTON13_NUM_SENSO
 115:Generated_Source\PSoC4/CapSense_Structure.c **** static SMARTSENSE_CSD_NOISE_ENVELOPE_STRUCT CapSense_noiseEnvlpButton14[CapSense_BUTTON14_NUM_SENSO
 116:Generated_Source\PSoC4/CapSense_Structure.c **** 
 117:Generated_Source\PSoC4/CapSense_Structure.c **** /*******************************************************************************
 118:Generated_Source\PSoC4/CapSense_Structure.c **** * Defines and initializes the Flash Data Structure
 119:Generated_Source\PSoC4/CapSense_Structure.c **** *******************************************************************************/
 120:Generated_Source\PSoC4/CapSense_Structure.c **** 
 121:Generated_Source\PSoC4/CapSense_Structure.c **** 
 122:Generated_Source\PSoC4/CapSense_Structure.c **** 
 123:Generated_Source\PSoC4/CapSense_Structure.c **** /**
 124:Generated_Source\PSoC4/CapSense_Structure.c **** * \cond SECTION_API_CONSTANTS
 125:Generated_Source\PSoC4/CapSense_Structure.c **** * \addtogroup group_api_constants
 126:Generated_Source\PSoC4/CapSense_Structure.c **** * \{
 127:Generated_Source\PSoC4/CapSense_Structure.c **** */
 128:Generated_Source\PSoC4/CapSense_Structure.c **** /**
 129:Generated_Source\PSoC4/CapSense_Structure.c **** * Constant for the FLASH Data Structure
 130:Generated_Source\PSoC4/CapSense_Structure.c **** */
 131:Generated_Source\PSoC4/CapSense_Structure.c **** const CapSense_FLASH_STRUCT CapSense_dsFlash =
 132:Generated_Source\PSoC4/CapSense_Structure.c **** {
 133:Generated_Source\PSoC4/CapSense_Structure.c ****     /* Flash Widget Initialization Data */
 134:Generated_Source\PSoC4/CapSense_Structure.c ****     {
 135:Generated_Source\PSoC4/CapSense_Structure.c ****         { /* Button0 */
 136:Generated_Source\PSoC4/CapSense_Structure.c ****             &CapSense_ioList[0u],
 137:Generated_Source\PSoC4/CapSense_Structure.c ****             (void *)&CapSense_dsRam.wdgtList.button0,
 138:Generated_Source\PSoC4/CapSense_Structure.c ****             CapSense_dsRam.snsList.button0,
 139:Generated_Source\PSoC4/CapSense_Structure.c ****             (void *)0u,
 140:Generated_Source\PSoC4/CapSense_Structure.c ****             CapSense_debounceButton0,
 141:Generated_Source\PSoC4/CapSense_Structure.c ****             CapSense_BUTTON0_STATIC_CONFIG,
 142:Generated_Source\PSoC4/CapSense_Structure.c ****             CapSense_BUTTON0_NUM_SENSORS,
 143:Generated_Source\PSoC4/CapSense_Structure.c ****             (uint8)CapSense_WD_BUTTON_E,
 144:Generated_Source\PSoC4/CapSense_Structure.c ****             CapSense_BUTTON0_NUM_SENSORS,
 145:Generated_Source\PSoC4/CapSense_Structure.c ****             CapSense_noiseEnvlpButton0,
ARM GAS  C:\Users\Admin\AppData\Local\Temp\ccu4y80a.s 			page 4


 146:Generated_Source\PSoC4/CapSense_Structure.c ****         },
 147:Generated_Source\PSoC4/CapSense_Structure.c ****         { /* Button1 */
 148:Generated_Source\PSoC4/CapSense_Structure.c ****             &CapSense_ioList[1u],
 149:Generated_Source\PSoC4/CapSense_Structure.c ****             (void *)&CapSense_dsRam.wdgtList.button1,
 150:Generated_Source\PSoC4/CapSense_Structure.c ****             CapSense_dsRam.snsList.button1,
 151:Generated_Source\PSoC4/CapSense_Structure.c ****             (void *)0u,
 152:Generated_Source\PSoC4/CapSense_Structure.c ****             CapSense_debounceButton1,
 153:Generated_Source\PSoC4/CapSense_Structure.c ****             CapSense_BUTTON1_STATIC_CONFIG,
 154:Generated_Source\PSoC4/CapSense_Structure.c ****             CapSense_BUTTON1_NUM_SENSORS,
 155:Generated_Source\PSoC4/CapSense_Structure.c ****             (uint8)CapSense_WD_BUTTON_E,
 156:Generated_Source\PSoC4/CapSense_Structure.c ****             CapSense_BUTTON1_NUM_SENSORS,
 157:Generated_Source\PSoC4/CapSense_Structure.c ****             CapSense_noiseEnvlpButton1,
 158:Generated_Source\PSoC4/CapSense_Structure.c ****         },
 159:Generated_Source\PSoC4/CapSense_Structure.c ****         { /* Button2 */
 160:Generated_Source\PSoC4/CapSense_Structure.c ****             &CapSense_ioList[2u],
 161:Generated_Source\PSoC4/CapSense_Structure.c ****             (void *)&CapSense_dsRam.wdgtList.button2,
 162:Generated_Source\PSoC4/CapSense_Structure.c ****             CapSense_dsRam.snsList.button2,
 163:Generated_Source\PSoC4/CapSense_Structure.c ****             (void *)0u,
 164:Generated_Source\PSoC4/CapSense_Structure.c ****             CapSense_debounceButton2,
 165:Generated_Source\PSoC4/CapSense_Structure.c ****             CapSense_BUTTON2_STATIC_CONFIG,
 166:Generated_Source\PSoC4/CapSense_Structure.c ****             CapSense_BUTTON2_NUM_SENSORS,
 167:Generated_Source\PSoC4/CapSense_Structure.c ****             (uint8)CapSense_WD_BUTTON_E,
 168:Generated_Source\PSoC4/CapSense_Structure.c ****             CapSense_BUTTON2_NUM_SENSORS,
 169:Generated_Source\PSoC4/CapSense_Structure.c ****             CapSense_noiseEnvlpButton2,
 170:Generated_Source\PSoC4/CapSense_Structure.c ****         },
 171:Generated_Source\PSoC4/CapSense_Structure.c ****         { /* Button3 */
 172:Generated_Source\PSoC4/CapSense_Structure.c ****             &CapSense_ioList[3u],
 173:Generated_Source\PSoC4/CapSense_Structure.c ****             (void *)&CapSense_dsRam.wdgtList.button3,
 174:Generated_Source\PSoC4/CapSense_Structure.c ****             CapSense_dsRam.snsList.button3,
 175:Generated_Source\PSoC4/CapSense_Structure.c ****             (void *)0u,
 176:Generated_Source\PSoC4/CapSense_Structure.c ****             CapSense_debounceButton3,
 177:Generated_Source\PSoC4/CapSense_Structure.c ****             CapSense_BUTTON3_STATIC_CONFIG,
 178:Generated_Source\PSoC4/CapSense_Structure.c ****             CapSense_BUTTON3_NUM_SENSORS,
 179:Generated_Source\PSoC4/CapSense_Structure.c ****             (uint8)CapSense_WD_BUTTON_E,
 180:Generated_Source\PSoC4/CapSense_Structure.c ****             CapSense_BUTTON3_NUM_SENSORS,
 181:Generated_Source\PSoC4/CapSense_Structure.c ****             CapSense_noiseEnvlpButton3,
 182:Generated_Source\PSoC4/CapSense_Structure.c ****         },
 183:Generated_Source\PSoC4/CapSense_Structure.c ****         { /* Button4 */
 184:Generated_Source\PSoC4/CapSense_Structure.c ****             &CapSense_ioList[4u],
 185:Generated_Source\PSoC4/CapSense_Structure.c ****             (void *)&CapSense_dsRam.wdgtList.button4,
 186:Generated_Source\PSoC4/CapSense_Structure.c ****             CapSense_dsRam.snsList.button4,
 187:Generated_Source\PSoC4/CapSense_Structure.c ****             (void *)0u,
 188:Generated_Source\PSoC4/CapSense_Structure.c ****             CapSense_debounceButton4,
 189:Generated_Source\PSoC4/CapSense_Structure.c ****             CapSense_BUTTON4_STATIC_CONFIG,
 190:Generated_Source\PSoC4/CapSense_Structure.c ****             CapSense_BUTTON4_NUM_SENSORS,
 191:Generated_Source\PSoC4/CapSense_Structure.c ****             (uint8)CapSense_WD_BUTTON_E,
 192:Generated_Source\PSoC4/CapSense_Structure.c ****             CapSense_BUTTON4_NUM_SENSORS,
 193:Generated_Source\PSoC4/CapSense_Structure.c ****             CapSense_noiseEnvlpButton4,
 194:Generated_Source\PSoC4/CapSense_Structure.c ****         },
 195:Generated_Source\PSoC4/CapSense_Structure.c ****         { /* Button5 */
 196:Generated_Source\PSoC4/CapSense_Structure.c ****             &CapSense_ioList[5u],
 197:Generated_Source\PSoC4/CapSense_Structure.c ****             (void *)&CapSense_dsRam.wdgtList.button5,
 198:Generated_Source\PSoC4/CapSense_Structure.c ****             CapSense_dsRam.snsList.button5,
 199:Generated_Source\PSoC4/CapSense_Structure.c ****             (void *)0u,
 200:Generated_Source\PSoC4/CapSense_Structure.c ****             CapSense_debounceButton5,
 201:Generated_Source\PSoC4/CapSense_Structure.c ****             CapSense_BUTTON5_STATIC_CONFIG,
 202:Generated_Source\PSoC4/CapSense_Structure.c ****             CapSense_BUTTON5_NUM_SENSORS,
ARM GAS  C:\Users\Admin\AppData\Local\Temp\ccu4y80a.s 			page 5


 203:Generated_Source\PSoC4/CapSense_Structure.c ****             (uint8)CapSense_WD_BUTTON_E,
 204:Generated_Source\PSoC4/CapSense_Structure.c ****             CapSense_BUTTON5_NUM_SENSORS,
 205:Generated_Source\PSoC4/CapSense_Structure.c ****             CapSense_noiseEnvlpButton5,
 206:Generated_Source\PSoC4/CapSense_Structure.c ****         },
 207:Generated_Source\PSoC4/CapSense_Structure.c ****         { /* Button6 */
 208:Generated_Source\PSoC4/CapSense_Structure.c ****             &CapSense_ioList[6u],
 209:Generated_Source\PSoC4/CapSense_Structure.c ****             (void *)&CapSense_dsRam.wdgtList.button6,
 210:Generated_Source\PSoC4/CapSense_Structure.c ****             CapSense_dsRam.snsList.button6,
 211:Generated_Source\PSoC4/CapSense_Structure.c ****             (void *)0u,
 212:Generated_Source\PSoC4/CapSense_Structure.c ****             CapSense_debounceButton6,
 213:Generated_Source\PSoC4/CapSense_Structure.c ****             CapSense_BUTTON6_STATIC_CONFIG,
 214:Generated_Source\PSoC4/CapSense_Structure.c ****             CapSense_BUTTON6_NUM_SENSORS,
 215:Generated_Source\PSoC4/CapSense_Structure.c ****             (uint8)CapSense_WD_BUTTON_E,
 216:Generated_Source\PSoC4/CapSense_Structure.c ****             CapSense_BUTTON6_NUM_SENSORS,
 217:Generated_Source\PSoC4/CapSense_Structure.c ****             CapSense_noiseEnvlpButton6,
 218:Generated_Source\PSoC4/CapSense_Structure.c ****         },
 219:Generated_Source\PSoC4/CapSense_Structure.c ****         { /* Button7 */
 220:Generated_Source\PSoC4/CapSense_Structure.c ****             &CapSense_ioList[7u],
 221:Generated_Source\PSoC4/CapSense_Structure.c ****             (void *)&CapSense_dsRam.wdgtList.button7,
 222:Generated_Source\PSoC4/CapSense_Structure.c ****             CapSense_dsRam.snsList.button7,
 223:Generated_Source\PSoC4/CapSense_Structure.c ****             (void *)0u,
 224:Generated_Source\PSoC4/CapSense_Structure.c ****             CapSense_debounceButton7,
 225:Generated_Source\PSoC4/CapSense_Structure.c ****             CapSense_BUTTON7_STATIC_CONFIG,
 226:Generated_Source\PSoC4/CapSense_Structure.c ****             CapSense_BUTTON7_NUM_SENSORS,
 227:Generated_Source\PSoC4/CapSense_Structure.c ****             (uint8)CapSense_WD_BUTTON_E,
 228:Generated_Source\PSoC4/CapSense_Structure.c ****             CapSense_BUTTON7_NUM_SENSORS,
 229:Generated_Source\PSoC4/CapSense_Structure.c ****             CapSense_noiseEnvlpButton7,
 230:Generated_Source\PSoC4/CapSense_Structure.c ****         },
 231:Generated_Source\PSoC4/CapSense_Structure.c ****         { /* Button8 */
 232:Generated_Source\PSoC4/CapSense_Structure.c ****             &CapSense_ioList[8u],
 233:Generated_Source\PSoC4/CapSense_Structure.c ****             (void *)&CapSense_dsRam.wdgtList.button8,
 234:Generated_Source\PSoC4/CapSense_Structure.c ****             CapSense_dsRam.snsList.button8,
 235:Generated_Source\PSoC4/CapSense_Structure.c ****             (void *)0u,
 236:Generated_Source\PSoC4/CapSense_Structure.c ****             CapSense_debounceButton8,
 237:Generated_Source\PSoC4/CapSense_Structure.c ****             CapSense_BUTTON8_STATIC_CONFIG,
 238:Generated_Source\PSoC4/CapSense_Structure.c ****             CapSense_BUTTON8_NUM_SENSORS,
 239:Generated_Source\PSoC4/CapSense_Structure.c ****             (uint8)CapSense_WD_BUTTON_E,
 240:Generated_Source\PSoC4/CapSense_Structure.c ****             CapSense_BUTTON8_NUM_SENSORS,
 241:Generated_Source\PSoC4/CapSense_Structure.c ****             CapSense_noiseEnvlpButton8,
 242:Generated_Source\PSoC4/CapSense_Structure.c ****         },
 243:Generated_Source\PSoC4/CapSense_Structure.c ****         { /* Button9 */
 244:Generated_Source\PSoC4/CapSense_Structure.c ****             &CapSense_ioList[9u],
 245:Generated_Source\PSoC4/CapSense_Structure.c ****             (void *)&CapSense_dsRam.wdgtList.button9,
 246:Generated_Source\PSoC4/CapSense_Structure.c ****             CapSense_dsRam.snsList.button9,
 247:Generated_Source\PSoC4/CapSense_Structure.c ****             (void *)0u,
 248:Generated_Source\PSoC4/CapSense_Structure.c ****             CapSense_debounceButton9,
 249:Generated_Source\PSoC4/CapSense_Structure.c ****             CapSense_BUTTON9_STATIC_CONFIG,
 250:Generated_Source\PSoC4/CapSense_Structure.c ****             CapSense_BUTTON9_NUM_SENSORS,
 251:Generated_Source\PSoC4/CapSense_Structure.c ****             (uint8)CapSense_WD_BUTTON_E,
 252:Generated_Source\PSoC4/CapSense_Structure.c ****             CapSense_BUTTON9_NUM_SENSORS,
 253:Generated_Source\PSoC4/CapSense_Structure.c ****             CapSense_noiseEnvlpButton9,
 254:Generated_Source\PSoC4/CapSense_Structure.c ****         },
 255:Generated_Source\PSoC4/CapSense_Structure.c ****         { /* Button10 */
 256:Generated_Source\PSoC4/CapSense_Structure.c ****             &CapSense_ioList[10u],
 257:Generated_Source\PSoC4/CapSense_Structure.c ****             (void *)&CapSense_dsRam.wdgtList.button10,
 258:Generated_Source\PSoC4/CapSense_Structure.c ****             CapSense_dsRam.snsList.button10,
 259:Generated_Source\PSoC4/CapSense_Structure.c ****             (void *)0u,
ARM GAS  C:\Users\Admin\AppData\Local\Temp\ccu4y80a.s 			page 6


 260:Generated_Source\PSoC4/CapSense_Structure.c ****             CapSense_debounceButton10,
 261:Generated_Source\PSoC4/CapSense_Structure.c ****             CapSense_BUTTON10_STATIC_CONFIG,
 262:Generated_Source\PSoC4/CapSense_Structure.c ****             CapSense_BUTTON10_NUM_SENSORS,
 263:Generated_Source\PSoC4/CapSense_Structure.c ****             (uint8)CapSense_WD_BUTTON_E,
 264:Generated_Source\PSoC4/CapSense_Structure.c ****             CapSense_BUTTON10_NUM_SENSORS,
 265:Generated_Source\PSoC4/CapSense_Structure.c ****             CapSense_noiseEnvlpButton10,
 266:Generated_Source\PSoC4/CapSense_Structure.c ****         },
 267:Generated_Source\PSoC4/CapSense_Structure.c ****         { /* Button11 */
 268:Generated_Source\PSoC4/CapSense_Structure.c ****             &CapSense_ioList[11u],
 269:Generated_Source\PSoC4/CapSense_Structure.c ****             (void *)&CapSense_dsRam.wdgtList.button11,
 270:Generated_Source\PSoC4/CapSense_Structure.c ****             CapSense_dsRam.snsList.button11,
 271:Generated_Source\PSoC4/CapSense_Structure.c ****             (void *)0u,
 272:Generated_Source\PSoC4/CapSense_Structure.c ****             CapSense_debounceButton11,
 273:Generated_Source\PSoC4/CapSense_Structure.c ****             CapSense_BUTTON11_STATIC_CONFIG,
 274:Generated_Source\PSoC4/CapSense_Structure.c ****             CapSense_BUTTON11_NUM_SENSORS,
 275:Generated_Source\PSoC4/CapSense_Structure.c ****             (uint8)CapSense_WD_BUTTON_E,
 276:Generated_Source\PSoC4/CapSense_Structure.c ****             CapSense_BUTTON11_NUM_SENSORS,
 277:Generated_Source\PSoC4/CapSense_Structure.c ****             CapSense_noiseEnvlpButton11,
 278:Generated_Source\PSoC4/CapSense_Structure.c ****         },
 279:Generated_Source\PSoC4/CapSense_Structure.c ****         { /* Button12 */
 280:Generated_Source\PSoC4/CapSense_Structure.c ****             &CapSense_ioList[12u],
 281:Generated_Source\PSoC4/CapSense_Structure.c ****             (void *)&CapSense_dsRam.wdgtList.button12,
 282:Generated_Source\PSoC4/CapSense_Structure.c ****             CapSense_dsRam.snsList.button12,
 283:Generated_Source\PSoC4/CapSense_Structure.c ****             (void *)0u,
 284:Generated_Source\PSoC4/CapSense_Structure.c ****             CapSense_debounceButton12,
 285:Generated_Source\PSoC4/CapSense_Structure.c ****             CapSense_BUTTON12_STATIC_CONFIG,
 286:Generated_Source\PSoC4/CapSense_Structure.c ****             CapSense_BUTTON12_NUM_SENSORS,
 287:Generated_Source\PSoC4/CapSense_Structure.c ****             (uint8)CapSense_WD_BUTTON_E,
 288:Generated_Source\PSoC4/CapSense_Structure.c ****             CapSense_BUTTON12_NUM_SENSORS,
 289:Generated_Source\PSoC4/CapSense_Structure.c ****             CapSense_noiseEnvlpButton12,
 290:Generated_Source\PSoC4/CapSense_Structure.c ****         },
 291:Generated_Source\PSoC4/CapSense_Structure.c ****         { /* Button13 */
 292:Generated_Source\PSoC4/CapSense_Structure.c ****             &CapSense_ioList[13u],
 293:Generated_Source\PSoC4/CapSense_Structure.c ****             (void *)&CapSense_dsRam.wdgtList.button13,
 294:Generated_Source\PSoC4/CapSense_Structure.c ****             CapSense_dsRam.snsList.button13,
 295:Generated_Source\PSoC4/CapSense_Structure.c ****             (void *)0u,
 296:Generated_Source\PSoC4/CapSense_Structure.c ****             CapSense_debounceButton13,
 297:Generated_Source\PSoC4/CapSense_Structure.c ****             CapSense_BUTTON13_STATIC_CONFIG,
 298:Generated_Source\PSoC4/CapSense_Structure.c ****             CapSense_BUTTON13_NUM_SENSORS,
 299:Generated_Source\PSoC4/CapSense_Structure.c ****             (uint8)CapSense_WD_BUTTON_E,
 300:Generated_Source\PSoC4/CapSense_Structure.c ****             CapSense_BUTTON13_NUM_SENSORS,
 301:Generated_Source\PSoC4/CapSense_Structure.c ****             CapSense_noiseEnvlpButton13,
 302:Generated_Source\PSoC4/CapSense_Structure.c ****         },
 303:Generated_Source\PSoC4/CapSense_Structure.c ****         { /* Button14 */
 304:Generated_Source\PSoC4/CapSense_Structure.c ****             &CapSense_ioList[14u],
 305:Generated_Source\PSoC4/CapSense_Structure.c ****             (void *)&CapSense_dsRam.wdgtList.button14,
 306:Generated_Source\PSoC4/CapSense_Structure.c ****             CapSense_dsRam.snsList.button14,
 307:Generated_Source\PSoC4/CapSense_Structure.c ****             (void *)0u,
 308:Generated_Source\PSoC4/CapSense_Structure.c ****             CapSense_debounceButton14,
 309:Generated_Source\PSoC4/CapSense_Structure.c ****             CapSense_BUTTON14_STATIC_CONFIG,
 310:Generated_Source\PSoC4/CapSense_Structure.c ****             CapSense_BUTTON14_NUM_SENSORS,
 311:Generated_Source\PSoC4/CapSense_Structure.c ****             (uint8)CapSense_WD_BUTTON_E,
 312:Generated_Source\PSoC4/CapSense_Structure.c ****             CapSense_BUTTON14_NUM_SENSORS,
 313:Generated_Source\PSoC4/CapSense_Structure.c ****             CapSense_noiseEnvlpButton14,
 314:Generated_Source\PSoC4/CapSense_Structure.c ****         },
 315:Generated_Source\PSoC4/CapSense_Structure.c ****     },
 316:Generated_Source\PSoC4/CapSense_Structure.c **** };
ARM GAS  C:\Users\Admin\AppData\Local\Temp\ccu4y80a.s 			page 7


 317:Generated_Source\PSoC4/CapSense_Structure.c **** 
 318:Generated_Source\PSoC4/CapSense_Structure.c **** /**
 319:Generated_Source\PSoC4/CapSense_Structure.c **** * The array of the pointers to the electrode specific register.
 320:Generated_Source\PSoC4/CapSense_Structure.c **** */
 321:Generated_Source\PSoC4/CapSense_Structure.c **** const CapSense_FLASH_IO_STRUCT CapSense_ioList[CapSense_TOTAL_ELECTRODES] =
 322:Generated_Source\PSoC4/CapSense_Structure.c **** {
 323:Generated_Source\PSoC4/CapSense_Structure.c ****     { /* 0: Button0_Sns0 */
 324:Generated_Source\PSoC4/CapSense_Structure.c ****         (reg32 *)CapSense_Sns__0__HSIOM,
 325:Generated_Source\PSoC4/CapSense_Structure.c ****         (reg32 *)CapSense_Sns__0__PC,
 326:Generated_Source\PSoC4/CapSense_Structure.c ****         (reg32 *)CapSense_Sns__0__DR,
 327:Generated_Source\PSoC4/CapSense_Structure.c ****         (reg32 *)CapSense_Sns__0__PS,
 328:Generated_Source\PSoC4/CapSense_Structure.c ****         CapSense_Sns__0__HSIOM_MASK,
 329:Generated_Source\PSoC4/CapSense_Structure.c ****         CapSense_Sns__0__MASK,
 330:Generated_Source\PSoC4/CapSense_Structure.c ****         CapSense_Sns__0__HSIOM_SHIFT,
 331:Generated_Source\PSoC4/CapSense_Structure.c ****         (uint8)CapSense_Sns__0__SHIFT,
 332:Generated_Source\PSoC4/CapSense_Structure.c ****         (uint8)CapSense_Sns__0__SHIFT * 3u,
 333:Generated_Source\PSoC4/CapSense_Structure.c ****     },
 334:Generated_Source\PSoC4/CapSense_Structure.c ****     { /* 1: Button1_Sns0 */
 335:Generated_Source\PSoC4/CapSense_Structure.c ****         (reg32 *)CapSense_Sns__1__HSIOM,
 336:Generated_Source\PSoC4/CapSense_Structure.c ****         (reg32 *)CapSense_Sns__1__PC,
 337:Generated_Source\PSoC4/CapSense_Structure.c ****         (reg32 *)CapSense_Sns__1__DR,
 338:Generated_Source\PSoC4/CapSense_Structure.c ****         (reg32 *)CapSense_Sns__1__PS,
 339:Generated_Source\PSoC4/CapSense_Structure.c ****         CapSense_Sns__1__HSIOM_MASK,
 340:Generated_Source\PSoC4/CapSense_Structure.c ****         CapSense_Sns__1__MASK,
 341:Generated_Source\PSoC4/CapSense_Structure.c ****         CapSense_Sns__1__HSIOM_SHIFT,
 342:Generated_Source\PSoC4/CapSense_Structure.c ****         (uint8)CapSense_Sns__1__SHIFT,
 343:Generated_Source\PSoC4/CapSense_Structure.c ****         (uint8)CapSense_Sns__1__SHIFT * 3u,
 344:Generated_Source\PSoC4/CapSense_Structure.c ****     },
 345:Generated_Source\PSoC4/CapSense_Structure.c ****     { /* 2: Button2_Sns0 */
 346:Generated_Source\PSoC4/CapSense_Structure.c ****         (reg32 *)CapSense_Sns__2__HSIOM,
 347:Generated_Source\PSoC4/CapSense_Structure.c ****         (reg32 *)CapSense_Sns__2__PC,
 348:Generated_Source\PSoC4/CapSense_Structure.c ****         (reg32 *)CapSense_Sns__2__DR,
 349:Generated_Source\PSoC4/CapSense_Structure.c ****         (reg32 *)CapSense_Sns__2__PS,
 350:Generated_Source\PSoC4/CapSense_Structure.c ****         CapSense_Sns__2__HSIOM_MASK,
 351:Generated_Source\PSoC4/CapSense_Structure.c ****         CapSense_Sns__2__MASK,
 352:Generated_Source\PSoC4/CapSense_Structure.c ****         CapSense_Sns__2__HSIOM_SHIFT,
 353:Generated_Source\PSoC4/CapSense_Structure.c ****         (uint8)CapSense_Sns__2__SHIFT,
 354:Generated_Source\PSoC4/CapSense_Structure.c ****         (uint8)CapSense_Sns__2__SHIFT * 3u,
 355:Generated_Source\PSoC4/CapSense_Structure.c ****     },
 356:Generated_Source\PSoC4/CapSense_Structure.c ****     { /* 3: Button3_Sns0 */
 357:Generated_Source\PSoC4/CapSense_Structure.c ****         (reg32 *)CapSense_Sns__3__HSIOM,
 358:Generated_Source\PSoC4/CapSense_Structure.c ****         (reg32 *)CapSense_Sns__3__PC,
 359:Generated_Source\PSoC4/CapSense_Structure.c ****         (reg32 *)CapSense_Sns__3__DR,
 360:Generated_Source\PSoC4/CapSense_Structure.c ****         (reg32 *)CapSense_Sns__3__PS,
 361:Generated_Source\PSoC4/CapSense_Structure.c ****         CapSense_Sns__3__HSIOM_MASK,
 362:Generated_Source\PSoC4/CapSense_Structure.c ****         CapSense_Sns__3__MASK,
 363:Generated_Source\PSoC4/CapSense_Structure.c ****         CapSense_Sns__3__HSIOM_SHIFT,
 364:Generated_Source\PSoC4/CapSense_Structure.c ****         (uint8)CapSense_Sns__3__SHIFT,
 365:Generated_Source\PSoC4/CapSense_Structure.c ****         (uint8)CapSense_Sns__3__SHIFT * 3u,
 366:Generated_Source\PSoC4/CapSense_Structure.c ****     },
 367:Generated_Source\PSoC4/CapSense_Structure.c ****     { /* 4: Button4_Sns0 */
 368:Generated_Source\PSoC4/CapSense_Structure.c ****         (reg32 *)CapSense_Sns__4__HSIOM,
 369:Generated_Source\PSoC4/CapSense_Structure.c ****         (reg32 *)CapSense_Sns__4__PC,
 370:Generated_Source\PSoC4/CapSense_Structure.c ****         (reg32 *)CapSense_Sns__4__DR,
 371:Generated_Source\PSoC4/CapSense_Structure.c ****         (reg32 *)CapSense_Sns__4__PS,
 372:Generated_Source\PSoC4/CapSense_Structure.c ****         CapSense_Sns__4__HSIOM_MASK,
 373:Generated_Source\PSoC4/CapSense_Structure.c ****         CapSense_Sns__4__MASK,
ARM GAS  C:\Users\Admin\AppData\Local\Temp\ccu4y80a.s 			page 8


 374:Generated_Source\PSoC4/CapSense_Structure.c ****         CapSense_Sns__4__HSIOM_SHIFT,
 375:Generated_Source\PSoC4/CapSense_Structure.c ****         (uint8)CapSense_Sns__4__SHIFT,
 376:Generated_Source\PSoC4/CapSense_Structure.c ****         (uint8)CapSense_Sns__4__SHIFT * 3u,
 377:Generated_Source\PSoC4/CapSense_Structure.c ****     },
 378:Generated_Source\PSoC4/CapSense_Structure.c ****     { /* 5: Button5_Sns0 */
 379:Generated_Source\PSoC4/CapSense_Structure.c ****         (reg32 *)CapSense_Sns__5__HSIOM,
 380:Generated_Source\PSoC4/CapSense_Structure.c ****         (reg32 *)CapSense_Sns__5__PC,
 381:Generated_Source\PSoC4/CapSense_Structure.c ****         (reg32 *)CapSense_Sns__5__DR,
 382:Generated_Source\PSoC4/CapSense_Structure.c ****         (reg32 *)CapSense_Sns__5__PS,
 383:Generated_Source\PSoC4/CapSense_Structure.c ****         CapSense_Sns__5__HSIOM_MASK,
 384:Generated_Source\PSoC4/CapSense_Structure.c ****         CapSense_Sns__5__MASK,
 385:Generated_Source\PSoC4/CapSense_Structure.c ****         CapSense_Sns__5__HSIOM_SHIFT,
 386:Generated_Source\PSoC4/CapSense_Structure.c ****         (uint8)CapSense_Sns__5__SHIFT,
 387:Generated_Source\PSoC4/CapSense_Structure.c ****         (uint8)CapSense_Sns__5__SHIFT * 3u,
 388:Generated_Source\PSoC4/CapSense_Structure.c ****     },
 389:Generated_Source\PSoC4/CapSense_Structure.c ****     { /* 6: Button6_Sns0 */
 390:Generated_Source\PSoC4/CapSense_Structure.c ****         (reg32 *)CapSense_Sns__6__HSIOM,
 391:Generated_Source\PSoC4/CapSense_Structure.c ****         (reg32 *)CapSense_Sns__6__PC,
 392:Generated_Source\PSoC4/CapSense_Structure.c ****         (reg32 *)CapSense_Sns__6__DR,
 393:Generated_Source\PSoC4/CapSense_Structure.c ****         (reg32 *)CapSense_Sns__6__PS,
 394:Generated_Source\PSoC4/CapSense_Structure.c ****         CapSense_Sns__6__HSIOM_MASK,
 395:Generated_Source\PSoC4/CapSense_Structure.c ****         CapSense_Sns__6__MASK,
 396:Generated_Source\PSoC4/CapSense_Structure.c ****         CapSense_Sns__6__HSIOM_SHIFT,
 397:Generated_Source\PSoC4/CapSense_Structure.c ****         (uint8)CapSense_Sns__6__SHIFT,
 398:Generated_Source\PSoC4/CapSense_Structure.c ****         (uint8)CapSense_Sns__6__SHIFT * 3u,
 399:Generated_Source\PSoC4/CapSense_Structure.c ****     },
 400:Generated_Source\PSoC4/CapSense_Structure.c ****     { /* 7: Button7_Sns0 */
 401:Generated_Source\PSoC4/CapSense_Structure.c ****         (reg32 *)CapSense_Sns__7__HSIOM,
 402:Generated_Source\PSoC4/CapSense_Structure.c ****         (reg32 *)CapSense_Sns__7__PC,
 403:Generated_Source\PSoC4/CapSense_Structure.c ****         (reg32 *)CapSense_Sns__7__DR,
 404:Generated_Source\PSoC4/CapSense_Structure.c ****         (reg32 *)CapSense_Sns__7__PS,
 405:Generated_Source\PSoC4/CapSense_Structure.c ****         CapSense_Sns__7__HSIOM_MASK,
 406:Generated_Source\PSoC4/CapSense_Structure.c ****         CapSense_Sns__7__MASK,
 407:Generated_Source\PSoC4/CapSense_Structure.c ****         CapSense_Sns__7__HSIOM_SHIFT,
 408:Generated_Source\PSoC4/CapSense_Structure.c ****         (uint8)CapSense_Sns__7__SHIFT,
 409:Generated_Source\PSoC4/CapSense_Structure.c ****         (uint8)CapSense_Sns__7__SHIFT * 3u,
 410:Generated_Source\PSoC4/CapSense_Structure.c ****     },
 411:Generated_Source\PSoC4/CapSense_Structure.c ****     { /* 8: Button8_Sns0 */
 412:Generated_Source\PSoC4/CapSense_Structure.c ****         (reg32 *)CapSense_Sns__8__HSIOM,
 413:Generated_Source\PSoC4/CapSense_Structure.c ****         (reg32 *)CapSense_Sns__8__PC,
 414:Generated_Source\PSoC4/CapSense_Structure.c ****         (reg32 *)CapSense_Sns__8__DR,
 415:Generated_Source\PSoC4/CapSense_Structure.c ****         (reg32 *)CapSense_Sns__8__PS,
 416:Generated_Source\PSoC4/CapSense_Structure.c ****         CapSense_Sns__8__HSIOM_MASK,
 417:Generated_Source\PSoC4/CapSense_Structure.c ****         CapSense_Sns__8__MASK,
 418:Generated_Source\PSoC4/CapSense_Structure.c ****         CapSense_Sns__8__HSIOM_SHIFT,
 419:Generated_Source\PSoC4/CapSense_Structure.c ****         (uint8)CapSense_Sns__8__SHIFT,
 420:Generated_Source\PSoC4/CapSense_Structure.c ****         (uint8)CapSense_Sns__8__SHIFT * 3u,
 421:Generated_Source\PSoC4/CapSense_Structure.c ****     },
 422:Generated_Source\PSoC4/CapSense_Structure.c ****     { /* 9: Button9_Sns0 */
 423:Generated_Source\PSoC4/CapSense_Structure.c ****         (reg32 *)CapSense_Sns__9__HSIOM,
 424:Generated_Source\PSoC4/CapSense_Structure.c ****         (reg32 *)CapSense_Sns__9__PC,
 425:Generated_Source\PSoC4/CapSense_Structure.c ****         (reg32 *)CapSense_Sns__9__DR,
 426:Generated_Source\PSoC4/CapSense_Structure.c ****         (reg32 *)CapSense_Sns__9__PS,
 427:Generated_Source\PSoC4/CapSense_Structure.c ****         CapSense_Sns__9__HSIOM_MASK,
 428:Generated_Source\PSoC4/CapSense_Structure.c ****         CapSense_Sns__9__MASK,
 429:Generated_Source\PSoC4/CapSense_Structure.c ****         CapSense_Sns__9__HSIOM_SHIFT,
 430:Generated_Source\PSoC4/CapSense_Structure.c ****         (uint8)CapSense_Sns__9__SHIFT,
ARM GAS  C:\Users\Admin\AppData\Local\Temp\ccu4y80a.s 			page 9


 431:Generated_Source\PSoC4/CapSense_Structure.c ****         (uint8)CapSense_Sns__9__SHIFT * 3u,
 432:Generated_Source\PSoC4/CapSense_Structure.c ****     },
 433:Generated_Source\PSoC4/CapSense_Structure.c ****     { /* 10: Button10_Sns0 */
 434:Generated_Source\PSoC4/CapSense_Structure.c ****         (reg32 *)CapSense_Sns__10__HSIOM,
 435:Generated_Source\PSoC4/CapSense_Structure.c ****         (reg32 *)CapSense_Sns__10__PC,
 436:Generated_Source\PSoC4/CapSense_Structure.c ****         (reg32 *)CapSense_Sns__10__DR,
 437:Generated_Source\PSoC4/CapSense_Structure.c ****         (reg32 *)CapSense_Sns__10__PS,
 438:Generated_Source\PSoC4/CapSense_Structure.c ****         CapSense_Sns__10__HSIOM_MASK,
 439:Generated_Source\PSoC4/CapSense_Structure.c ****         CapSense_Sns__10__MASK,
 440:Generated_Source\PSoC4/CapSense_Structure.c ****         CapSense_Sns__10__HSIOM_SHIFT,
 441:Generated_Source\PSoC4/CapSense_Structure.c ****         (uint8)CapSense_Sns__10__SHIFT,
 442:Generated_Source\PSoC4/CapSense_Structure.c ****         (uint8)CapSense_Sns__10__SHIFT * 3u,
 443:Generated_Source\PSoC4/CapSense_Structure.c ****     },
 444:Generated_Source\PSoC4/CapSense_Structure.c ****     { /* 11: Button11_Sns0 */
 445:Generated_Source\PSoC4/CapSense_Structure.c ****         (reg32 *)CapSense_Sns__11__HSIOM,
 446:Generated_Source\PSoC4/CapSense_Structure.c ****         (reg32 *)CapSense_Sns__11__PC,
 447:Generated_Source\PSoC4/CapSense_Structure.c ****         (reg32 *)CapSense_Sns__11__DR,
 448:Generated_Source\PSoC4/CapSense_Structure.c ****         (reg32 *)CapSense_Sns__11__PS,
 449:Generated_Source\PSoC4/CapSense_Structure.c ****         CapSense_Sns__11__HSIOM_MASK,
 450:Generated_Source\PSoC4/CapSense_Structure.c ****         CapSense_Sns__11__MASK,
 451:Generated_Source\PSoC4/CapSense_Structure.c ****         CapSense_Sns__11__HSIOM_SHIFT,
 452:Generated_Source\PSoC4/CapSense_Structure.c ****         (uint8)CapSense_Sns__11__SHIFT,
 453:Generated_Source\PSoC4/CapSense_Structure.c ****         (uint8)CapSense_Sns__11__SHIFT * 3u,
 454:Generated_Source\PSoC4/CapSense_Structure.c ****     },
 455:Generated_Source\PSoC4/CapSense_Structure.c ****     { /* 12: Button12_Sns0 */
 456:Generated_Source\PSoC4/CapSense_Structure.c ****         (reg32 *)CapSense_Sns__12__HSIOM,
 457:Generated_Source\PSoC4/CapSense_Structure.c ****         (reg32 *)CapSense_Sns__12__PC,
 458:Generated_Source\PSoC4/CapSense_Structure.c ****         (reg32 *)CapSense_Sns__12__DR,
 459:Generated_Source\PSoC4/CapSense_Structure.c ****         (reg32 *)CapSense_Sns__12__PS,
 460:Generated_Source\PSoC4/CapSense_Structure.c ****         CapSense_Sns__12__HSIOM_MASK,
 461:Generated_Source\PSoC4/CapSense_Structure.c ****         CapSense_Sns__12__MASK,
 462:Generated_Source\PSoC4/CapSense_Structure.c ****         CapSense_Sns__12__HSIOM_SHIFT,
 463:Generated_Source\PSoC4/CapSense_Structure.c ****         (uint8)CapSense_Sns__12__SHIFT,
 464:Generated_Source\PSoC4/CapSense_Structure.c ****         (uint8)CapSense_Sns__12__SHIFT * 3u,
 465:Generated_Source\PSoC4/CapSense_Structure.c ****     },
 466:Generated_Source\PSoC4/CapSense_Structure.c ****     { /* 13: Button13_Sns0 */
 467:Generated_Source\PSoC4/CapSense_Structure.c ****         (reg32 *)CapSense_Sns__13__HSIOM,
 468:Generated_Source\PSoC4/CapSense_Structure.c ****         (reg32 *)CapSense_Sns__13__PC,
 469:Generated_Source\PSoC4/CapSense_Structure.c ****         (reg32 *)CapSense_Sns__13__DR,
 470:Generated_Source\PSoC4/CapSense_Structure.c ****         (reg32 *)CapSense_Sns__13__PS,
 471:Generated_Source\PSoC4/CapSense_Structure.c ****         CapSense_Sns__13__HSIOM_MASK,
 472:Generated_Source\PSoC4/CapSense_Structure.c ****         CapSense_Sns__13__MASK,
 473:Generated_Source\PSoC4/CapSense_Structure.c ****         CapSense_Sns__13__HSIOM_SHIFT,
 474:Generated_Source\PSoC4/CapSense_Structure.c ****         (uint8)CapSense_Sns__13__SHIFT,
 475:Generated_Source\PSoC4/CapSense_Structure.c ****         (uint8)CapSense_Sns__13__SHIFT * 3u,
 476:Generated_Source\PSoC4/CapSense_Structure.c ****     },
 477:Generated_Source\PSoC4/CapSense_Structure.c ****     { /* 14: Button14_Sns0 */
 478:Generated_Source\PSoC4/CapSense_Structure.c ****         (reg32 *)CapSense_Sns__14__HSIOM,
 479:Generated_Source\PSoC4/CapSense_Structure.c ****         (reg32 *)CapSense_Sns__14__PC,
 480:Generated_Source\PSoC4/CapSense_Structure.c ****         (reg32 *)CapSense_Sns__14__DR,
 481:Generated_Source\PSoC4/CapSense_Structure.c ****         (reg32 *)CapSense_Sns__14__PS,
 482:Generated_Source\PSoC4/CapSense_Structure.c ****         CapSense_Sns__14__HSIOM_MASK,
 483:Generated_Source\PSoC4/CapSense_Structure.c ****         CapSense_Sns__14__MASK,
 484:Generated_Source\PSoC4/CapSense_Structure.c ****         CapSense_Sns__14__HSIOM_SHIFT,
 485:Generated_Source\PSoC4/CapSense_Structure.c ****         (uint8)CapSense_Sns__14__SHIFT,
 486:Generated_Source\PSoC4/CapSense_Structure.c ****         (uint8)CapSense_Sns__14__SHIFT * 3u,
 487:Generated_Source\PSoC4/CapSense_Structure.c ****     },
ARM GAS  C:\Users\Admin\AppData\Local\Temp\ccu4y80a.s 			page 10


 488:Generated_Source\PSoC4/CapSense_Structure.c **** };
 489:Generated_Source\PSoC4/CapSense_Structure.c **** 
 490:Generated_Source\PSoC4/CapSense_Structure.c **** 
 491:Generated_Source\PSoC4/CapSense_Structure.c **** 
 492:Generated_Source\PSoC4/CapSense_Structure.c **** /** \}
 493:Generated_Source\PSoC4/CapSense_Structure.c **** * \endcond */
 494:Generated_Source\PSoC4/CapSense_Structure.c **** 
 495:Generated_Source\PSoC4/CapSense_Structure.c **** /* Initialization data for RAM widget list */
 496:Generated_Source\PSoC4/CapSense_Structure.c **** const CapSense_RAM_WD_LIST_STRUCT CapSense_ramWidgetInit =
 497:Generated_Source\PSoC4/CapSense_Structure.c **** {
 498:Generated_Source\PSoC4/CapSense_Structure.c ****     { /* Button0 */
 499:Generated_Source\PSoC4/CapSense_Structure.c ****         CapSense_BUTTON0_RESOLUTION,
 500:Generated_Source\PSoC4/CapSense_Structure.c ****         CapSense_BUTTON0_FINGER_TH,
 501:Generated_Source\PSoC4/CapSense_Structure.c ****         CapSense_BUTTON0_NOISE_TH,
 502:Generated_Source\PSoC4/CapSense_Structure.c ****         CapSense_BUTTON0_NNOISE_TH,
 503:Generated_Source\PSoC4/CapSense_Structure.c ****         CapSense_BUTTON0_HYSTERESIS,
 504:Generated_Source\PSoC4/CapSense_Structure.c ****         CapSense_BUTTON0_ON_DEBOUNCE,
 505:Generated_Source\PSoC4/CapSense_Structure.c ****         CapSense_BUTTON0_LOW_BSLN_RST,
 506:Generated_Source\PSoC4/CapSense_Structure.c ****         {
 507:Generated_Source\PSoC4/CapSense_Structure.c ****             CapSense_BUTTON0_IDAC_MOD0,
 508:Generated_Source\PSoC4/CapSense_Structure.c ****         },
 509:Generated_Source\PSoC4/CapSense_Structure.c ****         CapSense_BUTTON0_SNS_CLK,
 510:Generated_Source\PSoC4/CapSense_Structure.c ****         CapSense_BUTTON0_SNS_CLK_SOURCE,
 511:Generated_Source\PSoC4/CapSense_Structure.c ****         CapSense_BUTTON0_FINGER_CAP,
 512:Generated_Source\PSoC4/CapSense_Structure.c ****         CapSense_BUTTON0_SIGPFC,
 513:Generated_Source\PSoC4/CapSense_Structure.c ****     },
 514:Generated_Source\PSoC4/CapSense_Structure.c ****     { /* Button1 */
 515:Generated_Source\PSoC4/CapSense_Structure.c ****         CapSense_BUTTON1_RESOLUTION,
 516:Generated_Source\PSoC4/CapSense_Structure.c ****         CapSense_BUTTON1_FINGER_TH,
 517:Generated_Source\PSoC4/CapSense_Structure.c ****         CapSense_BUTTON1_NOISE_TH,
 518:Generated_Source\PSoC4/CapSense_Structure.c ****         CapSense_BUTTON1_NNOISE_TH,
 519:Generated_Source\PSoC4/CapSense_Structure.c ****         CapSense_BUTTON1_HYSTERESIS,
 520:Generated_Source\PSoC4/CapSense_Structure.c ****         CapSense_BUTTON1_ON_DEBOUNCE,
 521:Generated_Source\PSoC4/CapSense_Structure.c ****         CapSense_BUTTON1_LOW_BSLN_RST,
 522:Generated_Source\PSoC4/CapSense_Structure.c ****         {
 523:Generated_Source\PSoC4/CapSense_Structure.c ****             CapSense_BUTTON1_IDAC_MOD0,
 524:Generated_Source\PSoC4/CapSense_Structure.c ****         },
 525:Generated_Source\PSoC4/CapSense_Structure.c ****         CapSense_BUTTON1_SNS_CLK,
 526:Generated_Source\PSoC4/CapSense_Structure.c ****         CapSense_BUTTON1_SNS_CLK_SOURCE,
 527:Generated_Source\PSoC4/CapSense_Structure.c ****         CapSense_BUTTON1_FINGER_CAP,
 528:Generated_Source\PSoC4/CapSense_Structure.c ****         CapSense_BUTTON1_SIGPFC,
 529:Generated_Source\PSoC4/CapSense_Structure.c ****     },
 530:Generated_Source\PSoC4/CapSense_Structure.c ****     { /* Button2 */
 531:Generated_Source\PSoC4/CapSense_Structure.c ****         CapSense_BUTTON2_RESOLUTION,
 532:Generated_Source\PSoC4/CapSense_Structure.c ****         CapSense_BUTTON2_FINGER_TH,
 533:Generated_Source\PSoC4/CapSense_Structure.c ****         CapSense_BUTTON2_NOISE_TH,
 534:Generated_Source\PSoC4/CapSense_Structure.c ****         CapSense_BUTTON2_NNOISE_TH,
 535:Generated_Source\PSoC4/CapSense_Structure.c ****         CapSense_BUTTON2_HYSTERESIS,
 536:Generated_Source\PSoC4/CapSense_Structure.c ****         CapSense_BUTTON2_ON_DEBOUNCE,
 537:Generated_Source\PSoC4/CapSense_Structure.c ****         CapSense_BUTTON2_LOW_BSLN_RST,
 538:Generated_Source\PSoC4/CapSense_Structure.c ****         {
 539:Generated_Source\PSoC4/CapSense_Structure.c ****             CapSense_BUTTON2_IDAC_MOD0,
 540:Generated_Source\PSoC4/CapSense_Structure.c ****         },
 541:Generated_Source\PSoC4/CapSense_Structure.c ****         CapSense_BUTTON2_SNS_CLK,
 542:Generated_Source\PSoC4/CapSense_Structure.c ****         CapSense_BUTTON2_SNS_CLK_SOURCE,
 543:Generated_Source\PSoC4/CapSense_Structure.c ****         CapSense_BUTTON2_FINGER_CAP,
 544:Generated_Source\PSoC4/CapSense_Structure.c ****         CapSense_BUTTON2_SIGPFC,
ARM GAS  C:\Users\Admin\AppData\Local\Temp\ccu4y80a.s 			page 11


 545:Generated_Source\PSoC4/CapSense_Structure.c ****     },
 546:Generated_Source\PSoC4/CapSense_Structure.c ****     { /* Button3 */
 547:Generated_Source\PSoC4/CapSense_Structure.c ****         CapSense_BUTTON3_RESOLUTION,
 548:Generated_Source\PSoC4/CapSense_Structure.c ****         CapSense_BUTTON3_FINGER_TH,
 549:Generated_Source\PSoC4/CapSense_Structure.c ****         CapSense_BUTTON3_NOISE_TH,
 550:Generated_Source\PSoC4/CapSense_Structure.c ****         CapSense_BUTTON3_NNOISE_TH,
 551:Generated_Source\PSoC4/CapSense_Structure.c ****         CapSense_BUTTON3_HYSTERESIS,
 552:Generated_Source\PSoC4/CapSense_Structure.c ****         CapSense_BUTTON3_ON_DEBOUNCE,
 553:Generated_Source\PSoC4/CapSense_Structure.c ****         CapSense_BUTTON3_LOW_BSLN_RST,
 554:Generated_Source\PSoC4/CapSense_Structure.c ****         {
 555:Generated_Source\PSoC4/CapSense_Structure.c ****             CapSense_BUTTON3_IDAC_MOD0,
 556:Generated_Source\PSoC4/CapSense_Structure.c ****         },
 557:Generated_Source\PSoC4/CapSense_Structure.c ****         CapSense_BUTTON3_SNS_CLK,
 558:Generated_Source\PSoC4/CapSense_Structure.c ****         CapSense_BUTTON3_SNS_CLK_SOURCE,
 559:Generated_Source\PSoC4/CapSense_Structure.c ****         CapSense_BUTTON3_FINGER_CAP,
 560:Generated_Source\PSoC4/CapSense_Structure.c ****         CapSense_BUTTON3_SIGPFC,
 561:Generated_Source\PSoC4/CapSense_Structure.c ****     },
 562:Generated_Source\PSoC4/CapSense_Structure.c ****     { /* Button4 */
 563:Generated_Source\PSoC4/CapSense_Structure.c ****         CapSense_BUTTON4_RESOLUTION,
 564:Generated_Source\PSoC4/CapSense_Structure.c ****         CapSense_BUTTON4_FINGER_TH,
 565:Generated_Source\PSoC4/CapSense_Structure.c ****         CapSense_BUTTON4_NOISE_TH,
 566:Generated_Source\PSoC4/CapSense_Structure.c ****         CapSense_BUTTON4_NNOISE_TH,
 567:Generated_Source\PSoC4/CapSense_Structure.c ****         CapSense_BUTTON4_HYSTERESIS,
 568:Generated_Source\PSoC4/CapSense_Structure.c ****         CapSense_BUTTON4_ON_DEBOUNCE,
 569:Generated_Source\PSoC4/CapSense_Structure.c ****         CapSense_BUTTON4_LOW_BSLN_RST,
 570:Generated_Source\PSoC4/CapSense_Structure.c ****         {
 571:Generated_Source\PSoC4/CapSense_Structure.c ****             CapSense_BUTTON4_IDAC_MOD0,
 572:Generated_Source\PSoC4/CapSense_Structure.c ****         },
 573:Generated_Source\PSoC4/CapSense_Structure.c ****         CapSense_BUTTON4_SNS_CLK,
 574:Generated_Source\PSoC4/CapSense_Structure.c ****         CapSense_BUTTON4_SNS_CLK_SOURCE,
 575:Generated_Source\PSoC4/CapSense_Structure.c ****         CapSense_BUTTON4_FINGER_CAP,
 576:Generated_Source\PSoC4/CapSense_Structure.c ****         CapSense_BUTTON4_SIGPFC,
 577:Generated_Source\PSoC4/CapSense_Structure.c ****     },
 578:Generated_Source\PSoC4/CapSense_Structure.c ****     { /* Button5 */
 579:Generated_Source\PSoC4/CapSense_Structure.c ****         CapSense_BUTTON5_RESOLUTION,
 580:Generated_Source\PSoC4/CapSense_Structure.c ****         CapSense_BUTTON5_FINGER_TH,
 581:Generated_Source\PSoC4/CapSense_Structure.c ****         CapSense_BUTTON5_NOISE_TH,
 582:Generated_Source\PSoC4/CapSense_Structure.c ****         CapSense_BUTTON5_NNOISE_TH,
 583:Generated_Source\PSoC4/CapSense_Structure.c ****         CapSense_BUTTON5_HYSTERESIS,
 584:Generated_Source\PSoC4/CapSense_Structure.c ****         CapSense_BUTTON5_ON_DEBOUNCE,
 585:Generated_Source\PSoC4/CapSense_Structure.c ****         CapSense_BUTTON5_LOW_BSLN_RST,
 586:Generated_Source\PSoC4/CapSense_Structure.c ****         {
 587:Generated_Source\PSoC4/CapSense_Structure.c ****             CapSense_BUTTON5_IDAC_MOD0,
 588:Generated_Source\PSoC4/CapSense_Structure.c ****         },
 589:Generated_Source\PSoC4/CapSense_Structure.c ****         CapSense_BUTTON5_SNS_CLK,
 590:Generated_Source\PSoC4/CapSense_Structure.c ****         CapSense_BUTTON5_SNS_CLK_SOURCE,
 591:Generated_Source\PSoC4/CapSense_Structure.c ****         CapSense_BUTTON5_FINGER_CAP,
 592:Generated_Source\PSoC4/CapSense_Structure.c ****         CapSense_BUTTON5_SIGPFC,
 593:Generated_Source\PSoC4/CapSense_Structure.c ****     },
 594:Generated_Source\PSoC4/CapSense_Structure.c ****     { /* Button6 */
 595:Generated_Source\PSoC4/CapSense_Structure.c ****         CapSense_BUTTON6_RESOLUTION,
 596:Generated_Source\PSoC4/CapSense_Structure.c ****         CapSense_BUTTON6_FINGER_TH,
 597:Generated_Source\PSoC4/CapSense_Structure.c ****         CapSense_BUTTON6_NOISE_TH,
 598:Generated_Source\PSoC4/CapSense_Structure.c ****         CapSense_BUTTON6_NNOISE_TH,
 599:Generated_Source\PSoC4/CapSense_Structure.c ****         CapSense_BUTTON6_HYSTERESIS,
 600:Generated_Source\PSoC4/CapSense_Structure.c ****         CapSense_BUTTON6_ON_DEBOUNCE,
 601:Generated_Source\PSoC4/CapSense_Structure.c ****         CapSense_BUTTON6_LOW_BSLN_RST,
ARM GAS  C:\Users\Admin\AppData\Local\Temp\ccu4y80a.s 			page 12


 602:Generated_Source\PSoC4/CapSense_Structure.c ****         {
 603:Generated_Source\PSoC4/CapSense_Structure.c ****             CapSense_BUTTON6_IDAC_MOD0,
 604:Generated_Source\PSoC4/CapSense_Structure.c ****         },
 605:Generated_Source\PSoC4/CapSense_Structure.c ****         CapSense_BUTTON6_SNS_CLK,
 606:Generated_Source\PSoC4/CapSense_Structure.c ****         CapSense_BUTTON6_SNS_CLK_SOURCE,
 607:Generated_Source\PSoC4/CapSense_Structure.c ****         CapSense_BUTTON6_FINGER_CAP,
 608:Generated_Source\PSoC4/CapSense_Structure.c ****         CapSense_BUTTON6_SIGPFC,
 609:Generated_Source\PSoC4/CapSense_Structure.c ****     },
 610:Generated_Source\PSoC4/CapSense_Structure.c ****     { /* Button7 */
 611:Generated_Source\PSoC4/CapSense_Structure.c ****         CapSense_BUTTON7_RESOLUTION,
 612:Generated_Source\PSoC4/CapSense_Structure.c ****         CapSense_BUTTON7_FINGER_TH,
 613:Generated_Source\PSoC4/CapSense_Structure.c ****         CapSense_BUTTON7_NOISE_TH,
 614:Generated_Source\PSoC4/CapSense_Structure.c ****         CapSense_BUTTON7_NNOISE_TH,
 615:Generated_Source\PSoC4/CapSense_Structure.c ****         CapSense_BUTTON7_HYSTERESIS,
 616:Generated_Source\PSoC4/CapSense_Structure.c ****         CapSense_BUTTON7_ON_DEBOUNCE,
 617:Generated_Source\PSoC4/CapSense_Structure.c ****         CapSense_BUTTON7_LOW_BSLN_RST,
 618:Generated_Source\PSoC4/CapSense_Structure.c ****         {
 619:Generated_Source\PSoC4/CapSense_Structure.c ****             CapSense_BUTTON7_IDAC_MOD0,
 620:Generated_Source\PSoC4/CapSense_Structure.c ****         },
 621:Generated_Source\PSoC4/CapSense_Structure.c ****         CapSense_BUTTON7_SNS_CLK,
 622:Generated_Source\PSoC4/CapSense_Structure.c ****         CapSense_BUTTON7_SNS_CLK_SOURCE,
 623:Generated_Source\PSoC4/CapSense_Structure.c ****         CapSense_BUTTON7_FINGER_CAP,
 624:Generated_Source\PSoC4/CapSense_Structure.c ****         CapSense_BUTTON7_SIGPFC,
 625:Generated_Source\PSoC4/CapSense_Structure.c ****     },
 626:Generated_Source\PSoC4/CapSense_Structure.c ****     { /* Button8 */
 627:Generated_Source\PSoC4/CapSense_Structure.c ****         CapSense_BUTTON8_RESOLUTION,
 628:Generated_Source\PSoC4/CapSense_Structure.c ****         CapSense_BUTTON8_FINGER_TH,
 629:Generated_Source\PSoC4/CapSense_Structure.c ****         CapSense_BUTTON8_NOISE_TH,
 630:Generated_Source\PSoC4/CapSense_Structure.c ****         CapSense_BUTTON8_NNOISE_TH,
 631:Generated_Source\PSoC4/CapSense_Structure.c ****         CapSense_BUTTON8_HYSTERESIS,
 632:Generated_Source\PSoC4/CapSense_Structure.c ****         CapSense_BUTTON8_ON_DEBOUNCE,
 633:Generated_Source\PSoC4/CapSense_Structure.c ****         CapSense_BUTTON8_LOW_BSLN_RST,
 634:Generated_Source\PSoC4/CapSense_Structure.c ****         {
 635:Generated_Source\PSoC4/CapSense_Structure.c ****             CapSense_BUTTON8_IDAC_MOD0,
 636:Generated_Source\PSoC4/CapSense_Structure.c ****         },
 637:Generated_Source\PSoC4/CapSense_Structure.c ****         CapSense_BUTTON8_SNS_CLK,
 638:Generated_Source\PSoC4/CapSense_Structure.c ****         CapSense_BUTTON8_SNS_CLK_SOURCE,
 639:Generated_Source\PSoC4/CapSense_Structure.c ****         CapSense_BUTTON8_FINGER_CAP,
 640:Generated_Source\PSoC4/CapSense_Structure.c ****         CapSense_BUTTON8_SIGPFC,
 641:Generated_Source\PSoC4/CapSense_Structure.c ****     },
 642:Generated_Source\PSoC4/CapSense_Structure.c ****     { /* Button9 */
 643:Generated_Source\PSoC4/CapSense_Structure.c ****         CapSense_BUTTON9_RESOLUTION,
 644:Generated_Source\PSoC4/CapSense_Structure.c ****         CapSense_BUTTON9_FINGER_TH,
 645:Generated_Source\PSoC4/CapSense_Structure.c ****         CapSense_BUTTON9_NOISE_TH,
 646:Generated_Source\PSoC4/CapSense_Structure.c ****         CapSense_BUTTON9_NNOISE_TH,
 647:Generated_Source\PSoC4/CapSense_Structure.c ****         CapSense_BUTTON9_HYSTERESIS,
 648:Generated_Source\PSoC4/CapSense_Structure.c ****         CapSense_BUTTON9_ON_DEBOUNCE,
 649:Generated_Source\PSoC4/CapSense_Structure.c ****         CapSense_BUTTON9_LOW_BSLN_RST,
 650:Generated_Source\PSoC4/CapSense_Structure.c ****         {
 651:Generated_Source\PSoC4/CapSense_Structure.c ****             CapSense_BUTTON9_IDAC_MOD0,
 652:Generated_Source\PSoC4/CapSense_Structure.c ****         },
 653:Generated_Source\PSoC4/CapSense_Structure.c ****         CapSense_BUTTON9_SNS_CLK,
 654:Generated_Source\PSoC4/CapSense_Structure.c ****         CapSense_BUTTON9_SNS_CLK_SOURCE,
 655:Generated_Source\PSoC4/CapSense_Structure.c ****         CapSense_BUTTON9_FINGER_CAP,
 656:Generated_Source\PSoC4/CapSense_Structure.c ****         CapSense_BUTTON9_SIGPFC,
 657:Generated_Source\PSoC4/CapSense_Structure.c ****     },
 658:Generated_Source\PSoC4/CapSense_Structure.c ****     { /* Button10 */
ARM GAS  C:\Users\Admin\AppData\Local\Temp\ccu4y80a.s 			page 13


 659:Generated_Source\PSoC4/CapSense_Structure.c ****         CapSense_BUTTON10_RESOLUTION,
 660:Generated_Source\PSoC4/CapSense_Structure.c ****         CapSense_BUTTON10_FINGER_TH,
 661:Generated_Source\PSoC4/CapSense_Structure.c ****         CapSense_BUTTON10_NOISE_TH,
 662:Generated_Source\PSoC4/CapSense_Structure.c ****         CapSense_BUTTON10_NNOISE_TH,
 663:Generated_Source\PSoC4/CapSense_Structure.c ****         CapSense_BUTTON10_HYSTERESIS,
 664:Generated_Source\PSoC4/CapSense_Structure.c ****         CapSense_BUTTON10_ON_DEBOUNCE,
 665:Generated_Source\PSoC4/CapSense_Structure.c ****         CapSense_BUTTON10_LOW_BSLN_RST,
 666:Generated_Source\PSoC4/CapSense_Structure.c ****         {
 667:Generated_Source\PSoC4/CapSense_Structure.c ****             CapSense_BUTTON10_IDAC_MOD0,
 668:Generated_Source\PSoC4/CapSense_Structure.c ****         },
 669:Generated_Source\PSoC4/CapSense_Structure.c ****         CapSense_BUTTON10_SNS_CLK,
 670:Generated_Source\PSoC4/CapSense_Structure.c ****         CapSense_BUTTON10_SNS_CLK_SOURCE,
 671:Generated_Source\PSoC4/CapSense_Structure.c ****         CapSense_BUTTON10_FINGER_CAP,
 672:Generated_Source\PSoC4/CapSense_Structure.c ****         CapSense_BUTTON10_SIGPFC,
 673:Generated_Source\PSoC4/CapSense_Structure.c ****     },
 674:Generated_Source\PSoC4/CapSense_Structure.c ****     { /* Button11 */
 675:Generated_Source\PSoC4/CapSense_Structure.c ****         CapSense_BUTTON11_RESOLUTION,
 676:Generated_Source\PSoC4/CapSense_Structure.c ****         CapSense_BUTTON11_FINGER_TH,
 677:Generated_Source\PSoC4/CapSense_Structure.c ****         CapSense_BUTTON11_NOISE_TH,
 678:Generated_Source\PSoC4/CapSense_Structure.c ****         CapSense_BUTTON11_NNOISE_TH,
 679:Generated_Source\PSoC4/CapSense_Structure.c ****         CapSense_BUTTON11_HYSTERESIS,
 680:Generated_Source\PSoC4/CapSense_Structure.c ****         CapSense_BUTTON11_ON_DEBOUNCE,
 681:Generated_Source\PSoC4/CapSense_Structure.c ****         CapSense_BUTTON11_LOW_BSLN_RST,
 682:Generated_Source\PSoC4/CapSense_Structure.c ****         {
 683:Generated_Source\PSoC4/CapSense_Structure.c ****             CapSense_BUTTON11_IDAC_MOD0,
 684:Generated_Source\PSoC4/CapSense_Structure.c ****         },
 685:Generated_Source\PSoC4/CapSense_Structure.c ****         CapSense_BUTTON11_SNS_CLK,
 686:Generated_Source\PSoC4/CapSense_Structure.c ****         CapSense_BUTTON11_SNS_CLK_SOURCE,
 687:Generated_Source\PSoC4/CapSense_Structure.c ****         CapSense_BUTTON11_FINGER_CAP,
 688:Generated_Source\PSoC4/CapSense_Structure.c ****         CapSense_BUTTON11_SIGPFC,
 689:Generated_Source\PSoC4/CapSense_Structure.c ****     },
 690:Generated_Source\PSoC4/CapSense_Structure.c ****     { /* Button12 */
 691:Generated_Source\PSoC4/CapSense_Structure.c ****         CapSense_BUTTON12_RESOLUTION,
 692:Generated_Source\PSoC4/CapSense_Structure.c ****         CapSense_BUTTON12_FINGER_TH,
 693:Generated_Source\PSoC4/CapSense_Structure.c ****         CapSense_BUTTON12_NOISE_TH,
 694:Generated_Source\PSoC4/CapSense_Structure.c ****         CapSense_BUTTON12_NNOISE_TH,
 695:Generated_Source\PSoC4/CapSense_Structure.c ****         CapSense_BUTTON12_HYSTERESIS,
 696:Generated_Source\PSoC4/CapSense_Structure.c ****         CapSense_BUTTON12_ON_DEBOUNCE,
 697:Generated_Source\PSoC4/CapSense_Structure.c ****         CapSense_BUTTON12_LOW_BSLN_RST,
 698:Generated_Source\PSoC4/CapSense_Structure.c ****         {
 699:Generated_Source\PSoC4/CapSense_Structure.c ****             CapSense_BUTTON12_IDAC_MOD0,
 700:Generated_Source\PSoC4/CapSense_Structure.c ****         },
 701:Generated_Source\PSoC4/CapSense_Structure.c ****         CapSense_BUTTON12_SNS_CLK,
 702:Generated_Source\PSoC4/CapSense_Structure.c ****         CapSense_BUTTON12_SNS_CLK_SOURCE,
 703:Generated_Source\PSoC4/CapSense_Structure.c ****         CapSense_BUTTON12_FINGER_CAP,
 704:Generated_Source\PSoC4/CapSense_Structure.c ****         CapSense_BUTTON12_SIGPFC,
 705:Generated_Source\PSoC4/CapSense_Structure.c ****     },
 706:Generated_Source\PSoC4/CapSense_Structure.c ****     { /* Button13 */
 707:Generated_Source\PSoC4/CapSense_Structure.c ****         CapSense_BUTTON13_RESOLUTION,
 708:Generated_Source\PSoC4/CapSense_Structure.c ****         CapSense_BUTTON13_FINGER_TH,
 709:Generated_Source\PSoC4/CapSense_Structure.c ****         CapSense_BUTTON13_NOISE_TH,
 710:Generated_Source\PSoC4/CapSense_Structure.c ****         CapSense_BUTTON13_NNOISE_TH,
 711:Generated_Source\PSoC4/CapSense_Structure.c ****         CapSense_BUTTON13_HYSTERESIS,
 712:Generated_Source\PSoC4/CapSense_Structure.c ****         CapSense_BUTTON13_ON_DEBOUNCE,
 713:Generated_Source\PSoC4/CapSense_Structure.c ****         CapSense_BUTTON13_LOW_BSLN_RST,
 714:Generated_Source\PSoC4/CapSense_Structure.c ****         {
 715:Generated_Source\PSoC4/CapSense_Structure.c ****             CapSense_BUTTON13_IDAC_MOD0,
ARM GAS  C:\Users\Admin\AppData\Local\Temp\ccu4y80a.s 			page 14


 716:Generated_Source\PSoC4/CapSense_Structure.c ****         },
 717:Generated_Source\PSoC4/CapSense_Structure.c ****         CapSense_BUTTON13_SNS_CLK,
 718:Generated_Source\PSoC4/CapSense_Structure.c ****         CapSense_BUTTON13_SNS_CLK_SOURCE,
 719:Generated_Source\PSoC4/CapSense_Structure.c ****         CapSense_BUTTON13_FINGER_CAP,
 720:Generated_Source\PSoC4/CapSense_Structure.c ****         CapSense_BUTTON13_SIGPFC,
 721:Generated_Source\PSoC4/CapSense_Structure.c ****     },
 722:Generated_Source\PSoC4/CapSense_Structure.c ****     { /* Button14 */
 723:Generated_Source\PSoC4/CapSense_Structure.c ****         CapSense_BUTTON14_RESOLUTION,
 724:Generated_Source\PSoC4/CapSense_Structure.c ****         CapSense_BUTTON14_FINGER_TH,
 725:Generated_Source\PSoC4/CapSense_Structure.c ****         CapSense_BUTTON14_NOISE_TH,
 726:Generated_Source\PSoC4/CapSense_Structure.c ****         CapSense_BUTTON14_NNOISE_TH,
 727:Generated_Source\PSoC4/CapSense_Structure.c ****         CapSense_BUTTON14_HYSTERESIS,
 728:Generated_Source\PSoC4/CapSense_Structure.c ****         CapSense_BUTTON14_ON_DEBOUNCE,
 729:Generated_Source\PSoC4/CapSense_Structure.c ****         CapSense_BUTTON14_LOW_BSLN_RST,
 730:Generated_Source\PSoC4/CapSense_Structure.c ****         {
 731:Generated_Source\PSoC4/CapSense_Structure.c ****             CapSense_BUTTON14_IDAC_MOD0,
 732:Generated_Source\PSoC4/CapSense_Structure.c ****         },
 733:Generated_Source\PSoC4/CapSense_Structure.c ****         CapSense_BUTTON14_SNS_CLK,
 734:Generated_Source\PSoC4/CapSense_Structure.c ****         CapSense_BUTTON14_SNS_CLK_SOURCE,
 735:Generated_Source\PSoC4/CapSense_Structure.c ****         CapSense_BUTTON14_FINGER_CAP,
 736:Generated_Source\PSoC4/CapSense_Structure.c ****         CapSense_BUTTON14_SIGPFC,
 737:Generated_Source\PSoC4/CapSense_Structure.c ****     },
 738:Generated_Source\PSoC4/CapSense_Structure.c **** };
 739:Generated_Source\PSoC4/CapSense_Structure.c **** 
 740:Generated_Source\PSoC4/CapSense_Structure.c **** 
 741:Generated_Source\PSoC4/CapSense_Structure.c **** /* IDAC Initialization Data */
 742:Generated_Source\PSoC4/CapSense_Structure.c **** const uint8 CapSense_ramIdacInit[CapSense_TOTAL_SENSORS] =
 743:Generated_Source\PSoC4/CapSense_Structure.c **** {
 744:Generated_Source\PSoC4/CapSense_Structure.c ****     /* Button0 */
 745:Generated_Source\PSoC4/CapSense_Structure.c ****     CapSense_BUTTON0_SNS0_IDAC_COMP0,
 746:Generated_Source\PSoC4/CapSense_Structure.c **** 
 747:Generated_Source\PSoC4/CapSense_Structure.c ****     /* Button1 */
 748:Generated_Source\PSoC4/CapSense_Structure.c ****     CapSense_BUTTON1_SNS0_IDAC_COMP0,
 749:Generated_Source\PSoC4/CapSense_Structure.c **** 
 750:Generated_Source\PSoC4/CapSense_Structure.c ****     /* Button2 */
 751:Generated_Source\PSoC4/CapSense_Structure.c ****     CapSense_BUTTON2_SNS0_IDAC_COMP0,
 752:Generated_Source\PSoC4/CapSense_Structure.c **** 
 753:Generated_Source\PSoC4/CapSense_Structure.c ****     /* Button3 */
 754:Generated_Source\PSoC4/CapSense_Structure.c ****     CapSense_BUTTON3_SNS0_IDAC_COMP0,
 755:Generated_Source\PSoC4/CapSense_Structure.c **** 
 756:Generated_Source\PSoC4/CapSense_Structure.c ****     /* Button4 */
 757:Generated_Source\PSoC4/CapSense_Structure.c ****     CapSense_BUTTON4_SNS0_IDAC_COMP0,
 758:Generated_Source\PSoC4/CapSense_Structure.c **** 
 759:Generated_Source\PSoC4/CapSense_Structure.c ****     /* Button5 */
 760:Generated_Source\PSoC4/CapSense_Structure.c ****     CapSense_BUTTON5_SNS0_IDAC_COMP0,
 761:Generated_Source\PSoC4/CapSense_Structure.c **** 
 762:Generated_Source\PSoC4/CapSense_Structure.c ****     /* Button6 */
 763:Generated_Source\PSoC4/CapSense_Structure.c ****     CapSense_BUTTON6_SNS0_IDAC_COMP0,
 764:Generated_Source\PSoC4/CapSense_Structure.c **** 
 765:Generated_Source\PSoC4/CapSense_Structure.c ****     /* Button7 */
 766:Generated_Source\PSoC4/CapSense_Structure.c ****     CapSense_BUTTON7_SNS0_IDAC_COMP0,
 767:Generated_Source\PSoC4/CapSense_Structure.c **** 
 768:Generated_Source\PSoC4/CapSense_Structure.c ****     /* Button8 */
 769:Generated_Source\PSoC4/CapSense_Structure.c ****     CapSense_BUTTON8_SNS0_IDAC_COMP0,
 770:Generated_Source\PSoC4/CapSense_Structure.c **** 
 771:Generated_Source\PSoC4/CapSense_Structure.c ****     /* Button9 */
 772:Generated_Source\PSoC4/CapSense_Structure.c ****     CapSense_BUTTON9_SNS0_IDAC_COMP0,
ARM GAS  C:\Users\Admin\AppData\Local\Temp\ccu4y80a.s 			page 15


 773:Generated_Source\PSoC4/CapSense_Structure.c **** 
 774:Generated_Source\PSoC4/CapSense_Structure.c ****     /* Button10 */
 775:Generated_Source\PSoC4/CapSense_Structure.c ****     CapSense_BUTTON10_SNS0_IDAC_COMP0,
 776:Generated_Source\PSoC4/CapSense_Structure.c **** 
 777:Generated_Source\PSoC4/CapSense_Structure.c ****     /* Button11 */
 778:Generated_Source\PSoC4/CapSense_Structure.c ****     CapSense_BUTTON11_SNS0_IDAC_COMP0,
 779:Generated_Source\PSoC4/CapSense_Structure.c **** 
 780:Generated_Source\PSoC4/CapSense_Structure.c ****     /* Button12 */
 781:Generated_Source\PSoC4/CapSense_Structure.c ****     CapSense_BUTTON12_SNS0_IDAC_COMP0,
 782:Generated_Source\PSoC4/CapSense_Structure.c **** 
 783:Generated_Source\PSoC4/CapSense_Structure.c ****     /* Button13 */
 784:Generated_Source\PSoC4/CapSense_Structure.c ****     CapSense_BUTTON13_SNS0_IDAC_COMP0,
 785:Generated_Source\PSoC4/CapSense_Structure.c **** 
 786:Generated_Source\PSoC4/CapSense_Structure.c ****     /* Button14 */
 787:Generated_Source\PSoC4/CapSense_Structure.c ****     CapSense_BUTTON14_SNS0_IDAC_COMP0,
 788:Generated_Source\PSoC4/CapSense_Structure.c **** };
 789:Generated_Source\PSoC4/CapSense_Structure.c **** 
 790:Generated_Source\PSoC4/CapSense_Structure.c **** 
 791:Generated_Source\PSoC4/CapSense_Structure.c **** 
 792:Generated_Source\PSoC4/CapSense_Structure.c **** /*******************************************************************************
 793:Generated_Source\PSoC4/CapSense_Structure.c **** * Defines internal data types and statements
 794:Generated_Source\PSoC4/CapSense_Structure.c **** *******************************************************************************/
 795:Generated_Source\PSoC4/CapSense_Structure.c **** #define PARAM_TYPE_OFFSET       (30u)
 796:Generated_Source\PSoC4/CapSense_Structure.c **** #define PARAM_TYPE_MASK         (3Lu << PARAM_TYPE_OFFSET)
 797:Generated_Source\PSoC4/CapSense_Structure.c **** #define PARAM_RWBIT_OFFSET      (29u)
 798:Generated_Source\PSoC4/CapSense_Structure.c **** #define PARAM_RWBIT_MASK        (1Lu << PARAM_RWBIT_OFFSET)
 799:Generated_Source\PSoC4/CapSense_Structure.c **** #define PARAM_FBIT_OFFSET       (28u)
 800:Generated_Source\PSoC4/CapSense_Structure.c **** #define PARAM_FBIT_MASK         (1Lu << PARAM_FBIT_OFFSET)
 801:Generated_Source\PSoC4/CapSense_Structure.c **** #define PARAM_UBIT_OFFSET       (23u)
 802:Generated_Source\PSoC4/CapSense_Structure.c **** #define PARAM_UBIT_MASK         (1Lu << PARAM_UBIT_OFFSET)
 803:Generated_Source\PSoC4/CapSense_Structure.c **** #define PARAM_WDID_OFFSET       (16u)
 804:Generated_Source\PSoC4/CapSense_Structure.c **** #define PARAM_WDID_MASK         (0x7FLu << PARAM_WDID_OFFSET)
 805:Generated_Source\PSoC4/CapSense_Structure.c **** #define PARAM_CRC_OFFSET        (24u)
 806:Generated_Source\PSoC4/CapSense_Structure.c **** #define PARAM_CRC_MASK          (0x0FLu << PARAM_CRC_OFFSET)
 807:Generated_Source\PSoC4/CapSense_Structure.c **** 
 808:Generated_Source\PSoC4/CapSense_Structure.c **** /* Defines align masks for uint16 and uint32 */
 809:Generated_Source\PSoC4/CapSense_Structure.c **** #define UINT16_ALIGN_MASK       (1Lu)
 810:Generated_Source\PSoC4/CapSense_Structure.c **** #define UINT32_ALIGN_MASK       (3Lu)
 811:Generated_Source\PSoC4/CapSense_Structure.c **** 
 812:Generated_Source\PSoC4/CapSense_Structure.c **** /* Defines supported parameter types */
 813:Generated_Source\PSoC4/CapSense_Structure.c **** #define DS_PARAM_TYPE_UINT8     (0x01u)
 814:Generated_Source\PSoC4/CapSense_Structure.c **** #define DS_PARAM_TYPE_UINT16    (0x02u)
 815:Generated_Source\PSoC4/CapSense_Structure.c **** #define DS_PARAM_TYPE_UINT32    (0x03u)
 816:Generated_Source\PSoC4/CapSense_Structure.c **** 
 817:Generated_Source\PSoC4/CapSense_Structure.c **** 
 818:Generated_Source\PSoC4/CapSense_Structure.c **** /* Defines PARAM_ID structure */
 819:Generated_Source\PSoC4/CapSense_Structure.c **** typedef struct
 820:Generated_Source\PSoC4/CapSense_Structure.c **** {
 821:Generated_Source\PSoC4/CapSense_Structure.c ****     uint16 offset;      /* parameter offset */
 822:Generated_Source\PSoC4/CapSense_Structure.c ****     uint8  widgetId;    /* widget Id parameter belongs to */
 823:Generated_Source\PSoC4/CapSense_Structure.c ****     uint8  affectsCrc;  /* parameter affects widget CRC */
 824:Generated_Source\PSoC4/CapSense_Structure.c ****     uint8  crc;         /* parameter CRC */
 825:Generated_Source\PSoC4/CapSense_Structure.c ****     uint8  flash;       /* parameter located in FLASH flag */
 826:Generated_Source\PSoC4/CapSense_Structure.c ****     uint8  rw;          /* parameter is read/write flag */
 827:Generated_Source\PSoC4/CapSense_Structure.c ****     uint8  type;        /* parameter type: uint8/uint16/uint32 */
 828:Generated_Source\PSoC4/CapSense_Structure.c **** } PARAM_ID_STRUCT;
 829:Generated_Source\PSoC4/CapSense_Structure.c **** 
ARM GAS  C:\Users\Admin\AppData\Local\Temp\ccu4y80a.s 			page 16


 830:Generated_Source\PSoC4/CapSense_Structure.c **** 
 831:Generated_Source\PSoC4/CapSense_Structure.c **** /*******************************************************************************
 832:Generated_Source\PSoC4/CapSense_Structure.c **** * Static Function Prototypes
 833:Generated_Source\PSoC4/CapSense_Structure.c **** *******************************************************************************/
 834:Generated_Source\PSoC4/CapSense_Structure.c **** /**
 835:Generated_Source\PSoC4/CapSense_Structure.c **** * \cond SECTION_C_INTERNAL
 836:Generated_Source\PSoC4/CapSense_Structure.c **** * \addtogroup group_c_internal
 837:Generated_Source\PSoC4/CapSense_Structure.c **** * \{
 838:Generated_Source\PSoC4/CapSense_Structure.c **** */
 839:Generated_Source\PSoC4/CapSense_Structure.c **** 
 840:Generated_Source\PSoC4/CapSense_Structure.c **** 
 841:Generated_Source\PSoC4/CapSense_Structure.c **** 
 842:Generated_Source\PSoC4/CapSense_Structure.c **** static cystatus DsParseParamId(uint32 paramId, PARAM_ID_STRUCT *pData);
 843:Generated_Source\PSoC4/CapSense_Structure.c **** 
 844:Generated_Source\PSoC4/CapSense_Structure.c **** /** \}
 845:Generated_Source\PSoC4/CapSense_Structure.c **** * \endcond */
 846:Generated_Source\PSoC4/CapSense_Structure.c **** 
 847:Generated_Source\PSoC4/CapSense_Structure.c **** 
 848:Generated_Source\PSoC4/CapSense_Structure.c **** /*******************************************************************************
 849:Generated_Source\PSoC4/CapSense_Structure.c **** * Function Name: CapSense_DsInitialize
 850:Generated_Source\PSoC4/CapSense_Structure.c **** ****************************************************************************//**
 851:Generated_Source\PSoC4/CapSense_Structure.c **** *
 852:Generated_Source\PSoC4/CapSense_Structure.c **** * \brief
 853:Generated_Source\PSoC4/CapSense_Structure.c **** *   This function initializes the Data Structure storage.
 854:Generated_Source\PSoC4/CapSense_Structure.c **** *
 855:Generated_Source\PSoC4/CapSense_Structure.c **** * \details
 856:Generated_Source\PSoC4/CapSense_Structure.c **** *   This function copies the default widget configuration parameters
 857:Generated_Source\PSoC4/CapSense_Structure.c **** *   from the Flash storage into the RAM Data Structure.
 858:Generated_Source\PSoC4/CapSense_Structure.c **** *
 859:Generated_Source\PSoC4/CapSense_Structure.c **** *******************************************************************************/
 860:Generated_Source\PSoC4/CapSense_Structure.c **** void CapSense_DsInitialize(void)
 861:Generated_Source\PSoC4/CapSense_Structure.c **** {
 862:Generated_Source\PSoC4/CapSense_Structure.c ****     #if ((CapSense_ENABLE == CapSense_CSX_EN) || \
 863:Generated_Source\PSoC4/CapSense_Structure.c ****          (CapSense_ENABLE == CapSense_CSD_IDAC_COMP_EN) || \
 864:Generated_Source\PSoC4/CapSense_Structure.c ****         ((CapSense_ENABLE == CapSense_CSX_EN) && \
 865:Generated_Source\PSoC4/CapSense_Structure.c ****          (CapSense_ENABLE == CapSense_CSX_SKIP_OVSMPL_SPECIFIC_NODES)))
 866:Generated_Source\PSoC4/CapSense_Structure.c ****         uint32 snsId;
 867:Generated_Source\PSoC4/CapSense_Structure.c ****         uint32 wdgtId;
 868:Generated_Source\PSoC4/CapSense_Structure.c ****         CapSense_RAM_SNS_STRUCT * ptrSnsTmp;
 869:Generated_Source\PSoC4/CapSense_Structure.c ****         CapSense_FLASH_WD_STRUCT const * ptrFlashWdgt;
 870:Generated_Source\PSoC4/CapSense_Structure.c ****     #endif
 871:Generated_Source\PSoC4/CapSense_Structure.c **** 
 872:Generated_Source\PSoC4/CapSense_Structure.c ****     #if ((CapSense_ENABLE == CapSense_CSX_EN) && \
 873:Generated_Source\PSoC4/CapSense_Structure.c ****          (CapSense_ENABLE == CapSense_CSX_SKIP_OVSMPL_SPECIFIC_NODES))
 874:Generated_Source\PSoC4/CapSense_Structure.c ****         uint16 subConvNumber;
 875:Generated_Source\PSoC4/CapSense_Structure.c ****     #endif
 876:Generated_Source\PSoC4/CapSense_Structure.c **** 
 877:Generated_Source\PSoC4/CapSense_Structure.c ****     #if ((0u != CapSense_CSX_EN) || (0 != CapSense_CSD_IDAC_COMP_EN))
 878:Generated_Source\PSoC4/CapSense_Structure.c ****         uint8 const * ptrIdacInit = CapSense_ramIdacInit;
 879:Generated_Source\PSoC4/CapSense_Structure.c ****     #endif
 880:Generated_Source\PSoC4/CapSense_Structure.c **** 
 881:Generated_Source\PSoC4/CapSense_Structure.c ****     /* Reset RAM data structure content */
 882:Generated_Source\PSoC4/CapSense_Structure.c ****     (void)memset(&CapSense_dsRam, 0, sizeof(CapSense_dsRam));
 883:Generated_Source\PSoC4/CapSense_Structure.c **** 
 884:Generated_Source\PSoC4/CapSense_Structure.c ****     /* Initialize configId, deviceId and hwClock registers */
 885:Generated_Source\PSoC4/CapSense_Structure.c ****     CapSense_dsRam.configId = CapSense_CONFIG_ID;
 886:Generated_Source\PSoC4/CapSense_Structure.c ****     CapSense_dsRam.deviceId = CapSense_DEVICE_ID;
ARM GAS  C:\Users\Admin\AppData\Local\Temp\ccu4y80a.s 			page 17


 887:Generated_Source\PSoC4/CapSense_Structure.c ****     CapSense_dsRam.hwClock = CapSense_HW_CLOCK;
 888:Generated_Source\PSoC4/CapSense_Structure.c **** 
 889:Generated_Source\PSoC4/CapSense_Structure.c ****     /* Initialize global RAM data */
 890:Generated_Source\PSoC4/CapSense_Structure.c ****     CapSense_dsRam.csd0Config = CapSense_CSD0_CONFIG;
 891:Generated_Source\PSoC4/CapSense_Structure.c **** 
 892:Generated_Source\PSoC4/CapSense_Structure.c ****     #if (0u != CapSense_TOTAL_CSD_WIDGETS)
 893:Generated_Source\PSoC4/CapSense_Structure.c ****         CapSense_dsRam.modCsdClk = CapSense_CSD_SCANSPEED_DIVIDER;
 894:Generated_Source\PSoC4/CapSense_Structure.c **** 
 895:Generated_Source\PSoC4/CapSense_Structure.c ****         #if (0u != CapSense_CSD_COMMON_SNS_CLK_EN)
 896:Generated_Source\PSoC4/CapSense_Structure.c ****             CapSense_dsRam.snsCsdClk = CapSense_CSD_SNS_CLK_DIVIDER;
 897:Generated_Source\PSoC4/CapSense_Structure.c ****         #endif /* #if (0u != CapSense_CSD_COMMON_SNS_CLK_EN) */
 898:Generated_Source\PSoC4/CapSense_Structure.c ****     #endif /* #if (0u != CapSense_TOTAL_CSD_WIDGETS) */
 899:Generated_Source\PSoC4/CapSense_Structure.c **** 
 900:Generated_Source\PSoC4/CapSense_Structure.c ****     #if (0u != CapSense_CSX_EN)
 901:Generated_Source\PSoC4/CapSense_Structure.c ****         CapSense_dsRam.modCsxClk = CapSense_CSX_SCANSPEED_DIVIDER;
 902:Generated_Source\PSoC4/CapSense_Structure.c **** 
 903:Generated_Source\PSoC4/CapSense_Structure.c ****         #if (0u != CapSense_CSX_COMMON_TX_CLK_EN)
 904:Generated_Source\PSoC4/CapSense_Structure.c ****             CapSense_dsRam.snsCsxClk = CapSense_CSX_TX_CLK_DIVIDER;
 905:Generated_Source\PSoC4/CapSense_Structure.c ****         #endif /* #if (0u != CapSense_CSX_COMMON_TX_CLK_EN) */
 906:Generated_Source\PSoC4/CapSense_Structure.c ****     #endif /* #if (0u != CapSense_CSX_EN) */
 907:Generated_Source\PSoC4/CapSense_Structure.c **** 
 908:Generated_Source\PSoC4/CapSense_Structure.c ****     #if (0u != CapSense_ISX_EN)
 909:Generated_Source\PSoC4/CapSense_Structure.c ****         CapSense_dsRam.modIsxClk = CapSense_ISX_SCANSPEED_DIVIDER;
 910:Generated_Source\PSoC4/CapSense_Structure.c ****     #endif /* #if (0u != CapSense_ISX_EN) */
 911:Generated_Source\PSoC4/CapSense_Structure.c **** 
 912:Generated_Source\PSoC4/CapSense_Structure.c ****     #if (0u != CapSense_SELF_TEST_EN)
 913:Generated_Source\PSoC4/CapSense_Structure.c ****         CapSense_dsRam.glbCrc = CapSense_GLB_CRC;
 914:Generated_Source\PSoC4/CapSense_Structure.c ****     #endif /* #if (0u != CapSense_SELF_TEST_EN) */
 915:Generated_Source\PSoC4/CapSense_Structure.c **** 
 916:Generated_Source\PSoC4/CapSense_Structure.c ****     /* Initialize RAM widget data */
 917:Generated_Source\PSoC4/CapSense_Structure.c ****     CapSense_dsRam.wdgtList = CapSense_ramWidgetInit;
 918:Generated_Source\PSoC4/CapSense_Structure.c **** 
 919:Generated_Source\PSoC4/CapSense_Structure.c ****     /* Initialize Gesture configuration structure */
 920:Generated_Source\PSoC4/CapSense_Structure.c ****     #if ((0u != CapSense_GES_GLOBAL_EN) || (0u != CapSense_BALLISTIC_MULTIPLIER_EN))
 921:Generated_Source\PSoC4/CapSense_Structure.c ****         CapSense_dsRam.timestampInterval = CapSense_TIMESTAMP_INTERVAL;
 922:Generated_Source\PSoC4/CapSense_Structure.c ****     #endif /* ((0u != CapSense_GES_GLOBAL_EN) || (0u != CapSense_BALLISTIC_MULTIPLIER_EN)) */
 923:Generated_Source\PSoC4/CapSense_Structure.c ****         
 924:Generated_Source\PSoC4/CapSense_Structure.c ****     #if (0u != CapSense_GES_GLOBAL_EN)
 925:Generated_Source\PSoC4/CapSense_Structure.c ****         CapSense_dsRam.gestures = CapSense_ramGesturesInit;
 926:Generated_Source\PSoC4/CapSense_Structure.c ****     #endif /* (0u != CapSense_GES_GLOBAL_EN) */
 927:Generated_Source\PSoC4/CapSense_Structure.c **** 
 928:Generated_Source\PSoC4/CapSense_Structure.c ****     #if (0u != CapSense_BALLISTIC_MULTIPLIER_EN)
 929:Generated_Source\PSoC4/CapSense_Structure.c ****         CapSense_dsRam.ballisticConfig = CapSense_ramBallisticInit;
 930:Generated_Source\PSoC4/CapSense_Structure.c ****     #endif /* (0u != CapSense_BALLISTIC_MULTIPLIER_EN) */
 931:Generated_Source\PSoC4/CapSense_Structure.c **** 
 932:Generated_Source\PSoC4/CapSense_Structure.c ****     #if (0u != CapSense_CSX_EN) || (0 != CapSense_CSD_IDAC_COMP_EN)
 933:Generated_Source\PSoC4/CapSense_Structure.c ****         /* Initialize IDAC data */
 934:Generated_Source\PSoC4/CapSense_Structure.c ****         ptrFlashWdgt = CapSense_dsFlash.wdgtArray;
 935:Generated_Source\PSoC4/CapSense_Structure.c **** 
 936:Generated_Source\PSoC4/CapSense_Structure.c ****         for (wdgtId = CapSense_TOTAL_WIDGETS; wdgtId-- > 0u; )
 937:Generated_Source\PSoC4/CapSense_Structure.c ****         {
 938:Generated_Source\PSoC4/CapSense_Structure.c ****             ptrSnsTmp = ptrFlashWdgt->ptr2SnsRam;
 939:Generated_Source\PSoC4/CapSense_Structure.c **** 
 940:Generated_Source\PSoC4/CapSense_Structure.c ****             for (snsId = CapSense_GET_SNS_CNT_BY_PTR(ptrFlashWdgt); snsId-- > 0u;)
 941:Generated_Source\PSoC4/CapSense_Structure.c ****             {
 942:Generated_Source\PSoC4/CapSense_Structure.c ****                 ptrSnsTmp->idacComp[0u] = *ptrIdacInit;
 943:Generated_Source\PSoC4/CapSense_Structure.c ****                 ptrIdacInit++;
ARM GAS  C:\Users\Admin\AppData\Local\Temp\ccu4y80a.s 			page 18


 944:Generated_Source\PSoC4/CapSense_Structure.c **** 
 945:Generated_Source\PSoC4/CapSense_Structure.c ****                 #if (0u != CapSense_MULTI_FREQ_SCAN_EN)
 946:Generated_Source\PSoC4/CapSense_Structure.c ****                     ptrSnsTmp->idacComp[1u] = *ptrIdacInit;
 947:Generated_Source\PSoC4/CapSense_Structure.c ****                     ptrIdacInit++;
 948:Generated_Source\PSoC4/CapSense_Structure.c **** 
 949:Generated_Source\PSoC4/CapSense_Structure.c ****                     ptrSnsTmp->idacComp[2u] = *ptrIdacInit;
 950:Generated_Source\PSoC4/CapSense_Structure.c ****                     ptrIdacInit++;
 951:Generated_Source\PSoC4/CapSense_Structure.c ****                 #endif /* #if (0u != CapSense_MULTI_FREQ_SCAN_EN) */
 952:Generated_Source\PSoC4/CapSense_Structure.c **** 
 953:Generated_Source\PSoC4/CapSense_Structure.c ****                 ptrSnsTmp++;
 954:Generated_Source\PSoC4/CapSense_Structure.c ****             }
 955:Generated_Source\PSoC4/CapSense_Structure.c **** 
 956:Generated_Source\PSoC4/CapSense_Structure.c ****             ptrFlashWdgt++; /* Move to next widget */
 957:Generated_Source\PSoC4/CapSense_Structure.c ****         }
 958:Generated_Source\PSoC4/CapSense_Structure.c ****     #endif /*(0u != CapSense_CSX_EN) || (0 != CapSense_CSD_IDAC_COMP_EN)*/
 959:Generated_Source\PSoC4/CapSense_Structure.c **** 
 960:Generated_Source\PSoC4/CapSense_Structure.c ****     #if ((CapSense_ENABLE == CapSense_CSX_EN) && \
 961:Generated_Source\PSoC4/CapSense_Structure.c ****          (CapSense_ENABLE == CapSense_CSX_SKIP_OVSMPL_SPECIFIC_NODES))
 962:Generated_Source\PSoC4/CapSense_Structure.c ****         /* Initialize Sub-Conversion Number for each node of each CSX widget */
 963:Generated_Source\PSoC4/CapSense_Structure.c ****         ptrFlashWdgt = CapSense_dsFlash.wdgtArray;
 964:Generated_Source\PSoC4/CapSense_Structure.c ****         for (wdgtId = CapSense_TOTAL_WIDGETS; wdgtId-- > 0u;)
 965:Generated_Source\PSoC4/CapSense_Structure.c ****         {
 966:Generated_Source\PSoC4/CapSense_Structure.c ****             /* Check for widget sense method */
 967:Generated_Source\PSoC4/CapSense_Structure.c ****             if (CapSense_SENSE_METHOD_CSX_E == CapSense_GET_SENSE_METHOD(ptrFlashWdgt))
 968:Generated_Source\PSoC4/CapSense_Structure.c ****             {
 969:Generated_Source\PSoC4/CapSense_Structure.c ****                 /* Take the sub-convesion number of a CSX widget and initialize each node of this w
 970:Generated_Source\PSoC4/CapSense_Structure.c ****                 subConvNumber = ((CapSense_RAM_WD_BASE_STRUCT *)(ptrFlashWdgt->ptr2WdgtRam))->resol
 971:Generated_Source\PSoC4/CapSense_Structure.c ****                 ptrSnsTmp = ptrFlashWdgt->ptr2SnsRam;
 972:Generated_Source\PSoC4/CapSense_Structure.c ****                 for (snsId = CapSense_GET_SNS_CNT_BY_PTR(ptrFlashWdgt); snsId-- > 0u;)
 973:Generated_Source\PSoC4/CapSense_Structure.c ****                 {
 974:Generated_Source\PSoC4/CapSense_Structure.c ****                     ptrSnsTmp->subConvNum = subConvNumber;
 975:Generated_Source\PSoC4/CapSense_Structure.c ****                     ptrSnsTmp++;
 976:Generated_Source\PSoC4/CapSense_Structure.c ****                 }
 977:Generated_Source\PSoC4/CapSense_Structure.c ****             }
 978:Generated_Source\PSoC4/CapSense_Structure.c ****             /* Move to the next widget */
 979:Generated_Source\PSoC4/CapSense_Structure.c ****             ptrFlashWdgt++;
 980:Generated_Source\PSoC4/CapSense_Structure.c ****         }
 981:Generated_Source\PSoC4/CapSense_Structure.c ****     #endif /* ((CapSense_ENABLE == CapSense_CSX_EN) && \
 982:Generated_Source\PSoC4/CapSense_Structure.c ****                (CapSense_ENABLE == CapSense_CSX_SKIP_OVSMPL_SPECIFIC_NODES)) */
 983:Generated_Source\PSoC4/CapSense_Structure.c **** 
 984:Generated_Source\PSoC4/CapSense_Structure.c ****     #if (0u != CapSense_ADC_EN)
 985:Generated_Source\PSoC4/CapSense_Structure.c ****         CapSense_AdcDsInitialize();
 986:Generated_Source\PSoC4/CapSense_Structure.c ****     #endif /* (0u != CapSense_ADC_EN) */
 987:Generated_Source\PSoC4/CapSense_Structure.c **** }
 988:Generated_Source\PSoC4/CapSense_Structure.c **** 
 989:Generated_Source\PSoC4/CapSense_Structure.c **** 
 990:Generated_Source\PSoC4/CapSense_Structure.c **** #if (0u != CapSense_ADC_EN)
 991:Generated_Source\PSoC4/CapSense_Structure.c ****     /*******************************************************************************
 992:Generated_Source\PSoC4/CapSense_Structure.c ****     * Function Name: CapSense_AdcDsInitialize
 993:Generated_Source\PSoC4/CapSense_Structure.c ****     ****************************************************************************//**
 994:Generated_Source\PSoC4/CapSense_Structure.c ****     *
 995:Generated_Source\PSoC4/CapSense_Structure.c ****     * \brief
 996:Generated_Source\PSoC4/CapSense_Structure.c ****     *   Configures the initial Adc datastructure members.
 997:Generated_Source\PSoC4/CapSense_Structure.c ****     *
 998:Generated_Source\PSoC4/CapSense_Structure.c ****     *******************************************************************************/
 999:Generated_Source\PSoC4/CapSense_Structure.c ****     void CapSense_AdcDsInitialize(void)
1000:Generated_Source\PSoC4/CapSense_Structure.c ****     {
ARM GAS  C:\Users\Admin\AppData\Local\Temp\ccu4y80a.s 			page 19


1001:Generated_Source\PSoC4/CapSense_Structure.c ****         CapSense_dsRam.adcResolution = CapSense_ADC_RESOLUTION;
1002:Generated_Source\PSoC4/CapSense_Structure.c ****         CapSense_dsRam.adcIdac = (uint8)(CapSense_ADC_IDAC_DEFAULT);
1003:Generated_Source\PSoC4/CapSense_Structure.c ****         CapSense_dsRam.adcActiveCh = CapSense_AdcNO_CHANNEL;
1004:Generated_Source\PSoC4/CapSense_Structure.c ****     }
1005:Generated_Source\PSoC4/CapSense_Structure.c **** #endif /* (0u != CapSense_ADC_EN) */
1006:Generated_Source\PSoC4/CapSense_Structure.c **** 
1007:Generated_Source\PSoC4/CapSense_Structure.c **** 
1008:Generated_Source\PSoC4/CapSense_Structure.c **** /*******************************************************************************
1009:Generated_Source\PSoC4/CapSense_Structure.c **** * Function Name: DsParseParamId
1010:Generated_Source\PSoC4/CapSense_Structure.c **** ****************************************************************************//**
1011:Generated_Source\PSoC4/CapSense_Structure.c **** *
1012:Generated_Source\PSoC4/CapSense_Structure.c **** * \brief
1013:Generated_Source\PSoC4/CapSense_Structure.c **** *   This function parses the parameter ID and checks its correctness.
1014:Generated_Source\PSoC4/CapSense_Structure.c **** *
1015:Generated_Source\PSoC4/CapSense_Structure.c **** * \details
1016:Generated_Source\PSoC4/CapSense_Structure.c **** *   This function checks the parameter CRC if the self-test is enabled,
1017:Generated_Source\PSoC4/CapSense_Structure.c **** *   validates the offset value and parameter type.
1018:Generated_Source\PSoC4/CapSense_Structure.c **** *
1019:Generated_Source\PSoC4/CapSense_Structure.c **** * \param paramId The parameter to parse.
1020:Generated_Source\PSoC4/CapSense_Structure.c **** * \param pData   The pointer to the structure that will hold parsed data.
1021:Generated_Source\PSoC4/CapSense_Structure.c **** *
1022:Generated_Source\PSoC4/CapSense_Structure.c **** * \return CYRET_SUCCESS     If the parameter is valid
1023:Generated_Source\PSoC4/CapSense_Structure.c **** *         CYRET_BAD_PARAM   If the parameter is invalid
1024:Generated_Source\PSoC4/CapSense_Structure.c **** *
1025:Generated_Source\PSoC4/CapSense_Structure.c **** *******************************************************************************/
1026:Generated_Source\PSoC4/CapSense_Structure.c **** static cystatus DsParseParamId(uint32 paramId, PARAM_ID_STRUCT *pData)
1027:Generated_Source\PSoC4/CapSense_Structure.c **** {
  27              		.loc 1 1027 0
  28              		.cfi_startproc
  29              		@ args = 0, pretend = 0, frame = 0
  30              		@ frame_needed = 0, uses_anonymous_args = 0
  31              	.LVL0:
  32 0000 70B5     		push	{r4, r5, r6, lr}
  33              		.cfi_def_cfa_offset 16
  34              		.cfi_offset 4, -16
  35              		.cfi_offset 5, -12
  36              		.cfi_offset 6, -8
  37              		.cfi_offset 14, -4
  38              	.LVL1:
1028:Generated_Source\PSoC4/CapSense_Structure.c ****     cystatus result = CYRET_SUCCESS;
1029:Generated_Source\PSoC4/CapSense_Structure.c **** 
1030:Generated_Source\PSoC4/CapSense_Structure.c ****     #if (0u != CapSense_SELF_TEST_EN)
1031:Generated_Source\PSoC4/CapSense_Structure.c ****         const uint8 crcTable[] =
1032:Generated_Source\PSoC4/CapSense_Structure.c ****         {
1033:Generated_Source\PSoC4/CapSense_Structure.c ****             0x00u, 0x09u, 0x0Bu, 0x02u, 0x0Fu, 0x06u, 0x04u, 0x0Du,
1034:Generated_Source\PSoC4/CapSense_Structure.c ****             0x07u, 0x0Eu, 0x0Cu, 0x05u, 0x08u, 0x01u, 0x03u, 0x0Au
1035:Generated_Source\PSoC4/CapSense_Structure.c ****         };
1036:Generated_Source\PSoC4/CapSense_Structure.c **** 
1037:Generated_Source\PSoC4/CapSense_Structure.c ****         uint32 i;
1038:Generated_Source\PSoC4/CapSense_Structure.c ****         uint32 actualCrc = 0u;
1039:Generated_Source\PSoC4/CapSense_Structure.c ****         uint32 crcIndex;
1040:Generated_Source\PSoC4/CapSense_Structure.c ****     #endif /* #if (0u != CapSense_SELF_TEST_EN) */
1041:Generated_Source\PSoC4/CapSense_Structure.c **** 
1042:Generated_Source\PSoC4/CapSense_Structure.c ****     /* Extract parameter data */
1043:Generated_Source\PSoC4/CapSense_Structure.c ****     pData->offset     = LO16(paramId);
  39              		.loc 1 1043 0
  40 0002 85B2     		uxth	r5, r0
ARM GAS  C:\Users\Admin\AppData\Local\Temp\ccu4y80a.s 			page 20


  41 0004 0D80     		strh	r5, [r1]
1044:Generated_Source\PSoC4/CapSense_Structure.c ****     pData->affectsCrc = LO8((paramId & PARAM_UBIT_MASK)  >> PARAM_UBIT_OFFSET);
  42              		.loc 1 1044 0
  43 0006 C30D     		lsrs	r3, r0, #23
  44 0008 0124     		movs	r4, #1
  45 000a 2340     		ands	r3, r4
  46 000c CB70     		strb	r3, [r1, #3]
1045:Generated_Source\PSoC4/CapSense_Structure.c ****     pData->widgetId   = LO8((paramId & PARAM_WDID_MASK)  >> PARAM_WDID_OFFSET);
  47              		.loc 1 1045 0
  48 000e 030C     		lsrs	r3, r0, #16
  49 0010 7F22     		movs	r2, #127
  50 0012 1340     		ands	r3, r2
  51 0014 8B70     		strb	r3, [r1, #2]
1046:Generated_Source\PSoC4/CapSense_Structure.c ****     pData->type       = LO8((paramId & PARAM_TYPE_MASK)  >> PARAM_TYPE_OFFSET);
  52              		.loc 1 1046 0
  53 0016 860F     		lsrs	r6, r0, #30
  54 0018 CE71     		strb	r6, [r1, #7]
1047:Generated_Source\PSoC4/CapSense_Structure.c ****     pData->flash      = LO8((paramId & PARAM_FBIT_MASK)  >> PARAM_FBIT_OFFSET);
  55              		.loc 1 1047 0
  56 001a 030F     		lsrs	r3, r0, #28
  57 001c 2340     		ands	r3, r4
  58 001e 4B71     		strb	r3, [r1, #5]
1048:Generated_Source\PSoC4/CapSense_Structure.c ****     pData->rw         = LO8((paramId & PARAM_RWBIT_MASK) >> PARAM_RWBIT_OFFSET);
  59              		.loc 1 1048 0
  60 0020 420F     		lsrs	r2, r0, #29
  61 0022 2240     		ands	r2, r4
  62 0024 8A71     		strb	r2, [r1, #6]
1049:Generated_Source\PSoC4/CapSense_Structure.c ****     pData->crc        = LO8((paramId & PARAM_CRC_MASK)   >> PARAM_CRC_OFFSET);
  63              		.loc 1 1049 0
  64 0026 000E     		lsrs	r0, r0, #24
  65              	.LVL2:
  66 0028 0E34     		adds	r4, r4, #14
  67 002a 2040     		ands	r0, r4
  68 002c 0871     		strb	r0, [r1, #4]
1050:Generated_Source\PSoC4/CapSense_Structure.c **** 
1051:Generated_Source\PSoC4/CapSense_Structure.c ****     /* Check parameter CRC if self-test is enabled */
1052:Generated_Source\PSoC4/CapSense_Structure.c ****     #if (0u != CapSense_SELF_TEST_EN)
1053:Generated_Source\PSoC4/CapSense_Structure.c **** 
1054:Generated_Source\PSoC4/CapSense_Structure.c ****         /* Calculate CRC for bits 0..24.
1055:Generated_Source\PSoC4/CapSense_Structure.c ****          * The CRC is calculated using nibbles (4-bits).
1056:Generated_Source\PSoC4/CapSense_Structure.c ****          * So for 0..24 bits there are in total 6 nibbles. */
1057:Generated_Source\PSoC4/CapSense_Structure.c ****         for (i = 6u; i > 0u; i--)
1058:Generated_Source\PSoC4/CapSense_Structure.c ****         {
1059:Generated_Source\PSoC4/CapSense_Structure.c ****             crcIndex = actualCrc ^ (paramId & 0x0Fu);
1060:Generated_Source\PSoC4/CapSense_Structure.c ****             actualCrc = crcTable[crcIndex];
1061:Generated_Source\PSoC4/CapSense_Structure.c ****             paramId >>= 4u;
1062:Generated_Source\PSoC4/CapSense_Structure.c ****         }
1063:Generated_Source\PSoC4/CapSense_Structure.c **** 
1064:Generated_Source\PSoC4/CapSense_Structure.c ****         /* Add bits 28..32 */
1065:Generated_Source\PSoC4/CapSense_Structure.c ****         crcIndex = actualCrc ^ ((paramId >> 4u) & 0x0Fu);
1066:Generated_Source\PSoC4/CapSense_Structure.c ****         actualCrc = crcTable[crcIndex];
1067:Generated_Source\PSoC4/CapSense_Structure.c **** 
1068:Generated_Source\PSoC4/CapSense_Structure.c ****         /* Add bits 24..28 (CRC) */
1069:Generated_Source\PSoC4/CapSense_Structure.c ****         crcIndex = actualCrc ^ (paramId & 0x0Fu);
1070:Generated_Source\PSoC4/CapSense_Structure.c ****         actualCrc = crcTable[crcIndex];
1071:Generated_Source\PSoC4/CapSense_Structure.c **** 
1072:Generated_Source\PSoC4/CapSense_Structure.c ****         if (0u != actualCrc)
ARM GAS  C:\Users\Admin\AppData\Local\Temp\ccu4y80a.s 			page 21


1073:Generated_Source\PSoC4/CapSense_Structure.c ****         {
1074:Generated_Source\PSoC4/CapSense_Structure.c ****             /* CRC mismatch */
1075:Generated_Source\PSoC4/CapSense_Structure.c ****             result = CYRET_BAD_PARAM;
1076:Generated_Source\PSoC4/CapSense_Structure.c ****         }
1077:Generated_Source\PSoC4/CapSense_Structure.c **** 
1078:Generated_Source\PSoC4/CapSense_Structure.c ****         if ((CYRET_SUCCESS == result) &&
1079:Generated_Source\PSoC4/CapSense_Structure.c ****             (0u != pData->affectsCrc) && (pData->widgetId >= CapSense_TOTAL_WIDGETS ))
1080:Generated_Source\PSoC4/CapSense_Structure.c ****         {
1081:Generated_Source\PSoC4/CapSense_Structure.c ****             /* Wrong widgetId for protected parameter */
1082:Generated_Source\PSoC4/CapSense_Structure.c ****             result = CYRET_BAD_PARAM;
1083:Generated_Source\PSoC4/CapSense_Structure.c ****         }
1084:Generated_Source\PSoC4/CapSense_Structure.c **** 
1085:Generated_Source\PSoC4/CapSense_Structure.c ****         /* Check offset value range */
1086:Generated_Source\PSoC4/CapSense_Structure.c ****         if (CYRET_SUCCESS == result)
1087:Generated_Source\PSoC4/CapSense_Structure.c ****         {
1088:Generated_Source\PSoC4/CapSense_Structure.c ****             if (0u == pData->flash)
1089:Generated_Source\PSoC4/CapSense_Structure.c ****             {
1090:Generated_Source\PSoC4/CapSense_Structure.c ****                 /* Check offset for RAM Data Structure range */
1091:Generated_Source\PSoC4/CapSense_Structure.c ****                 if (pData->offset >= sizeof(CapSense_dsRam))
1092:Generated_Source\PSoC4/CapSense_Structure.c ****                 {
1093:Generated_Source\PSoC4/CapSense_Structure.c ****                     result = CYRET_BAD_PARAM;
1094:Generated_Source\PSoC4/CapSense_Structure.c ****                 }
1095:Generated_Source\PSoC4/CapSense_Structure.c ****             }
1096:Generated_Source\PSoC4/CapSense_Structure.c ****             else
1097:Generated_Source\PSoC4/CapSense_Structure.c ****             {
1098:Generated_Source\PSoC4/CapSense_Structure.c ****                 /* Check offset for Flash Data Structure range */
1099:Generated_Source\PSoC4/CapSense_Structure.c ****                 if (pData->offset >= sizeof(CapSense_dsFlash))
1100:Generated_Source\PSoC4/CapSense_Structure.c ****                 {
1101:Generated_Source\PSoC4/CapSense_Structure.c ****                     result = CYRET_BAD_PARAM;
1102:Generated_Source\PSoC4/CapSense_Structure.c ****                 }
1103:Generated_Source\PSoC4/CapSense_Structure.c **** 
1104:Generated_Source\PSoC4/CapSense_Structure.c ****                 /* Check if it is marked as Read Only */
1105:Generated_Source\PSoC4/CapSense_Structure.c ****                 if (0u != pData->rw)
1106:Generated_Source\PSoC4/CapSense_Structure.c ****                 {
1107:Generated_Source\PSoC4/CapSense_Structure.c ****                     result = CYRET_BAD_PARAM;
1108:Generated_Source\PSoC4/CapSense_Structure.c ****                 }
1109:Generated_Source\PSoC4/CapSense_Structure.c ****             }
1110:Generated_Source\PSoC4/CapSense_Structure.c ****         }
1111:Generated_Source\PSoC4/CapSense_Structure.c ****     #else /* #if (0u != CapSense_SELF_TEST_EN) */
1112:Generated_Source\PSoC4/CapSense_Structure.c ****         /* Check offset value range */
1113:Generated_Source\PSoC4/CapSense_Structure.c ****         if (0u == pData->flash)
  69              		.loc 1 1113 0
  70 002e 002B     		cmp	r3, #0
  71 0030 05D1     		bne	.L2
1114:Generated_Source\PSoC4/CapSense_Structure.c ****         {
1115:Generated_Source\PSoC4/CapSense_Structure.c ****             /* Check offset for RAM Data Structure range */
1116:Generated_Source\PSoC4/CapSense_Structure.c ****             if (pData->offset >= sizeof(CapSense_dsRam))
  72              		.loc 1 1116 0
  73 0032 D823     		movs	r3, #216
  74 0034 FF33     		adds	r3, r3, #255
  75 0036 9D42     		cmp	r5, r3
  76 0038 0BD8     		bhi	.L9
1028:Generated_Source\PSoC4/CapSense_Structure.c **** 
  77              		.loc 1 1028 0
  78 003a 0020     		movs	r0, #0
  79 003c 0CE0     		b	.L3
  80              	.L2:
ARM GAS  C:\Users\Admin\AppData\Local\Temp\ccu4y80a.s 			page 22


1117:Generated_Source\PSoC4/CapSense_Structure.c ****             {
1118:Generated_Source\PSoC4/CapSense_Structure.c ****                 result = CYRET_BAD_PARAM;
1119:Generated_Source\PSoC4/CapSense_Structure.c ****             }
1120:Generated_Source\PSoC4/CapSense_Structure.c ****         }
1121:Generated_Source\PSoC4/CapSense_Structure.c ****         else
1122:Generated_Source\PSoC4/CapSense_Structure.c ****         {
1123:Generated_Source\PSoC4/CapSense_Structure.c ****             /* Check offset for Flash Data Structure range */
1124:Generated_Source\PSoC4/CapSense_Structure.c ****             if (pData->offset >= sizeof(CapSense_dsFlash))
  81              		.loc 1 1124 0
  82 003e E023     		movs	r3, #224
  83 0040 FF33     		adds	r3, r3, #255
  84 0042 9D42     		cmp	r5, r3
  85 0044 01D8     		bhi	.L10
1028:Generated_Source\PSoC4/CapSense_Structure.c **** 
  86              		.loc 1 1028 0
  87 0046 0020     		movs	r0, #0
  88 0048 00E0     		b	.L4
  89              	.L10:
1125:Generated_Source\PSoC4/CapSense_Structure.c ****             {
1126:Generated_Source\PSoC4/CapSense_Structure.c ****                 result = CYRET_BAD_PARAM;
  90              		.loc 1 1126 0
  91 004a 0120     		movs	r0, #1
  92              	.L4:
  93              	.LVL3:
1127:Generated_Source\PSoC4/CapSense_Structure.c ****             }
1128:Generated_Source\PSoC4/CapSense_Structure.c **** 
1129:Generated_Source\PSoC4/CapSense_Structure.c ****             /* Check if it is marked as Read Only */
1130:Generated_Source\PSoC4/CapSense_Structure.c ****             if (0u != pData->rw)
  94              		.loc 1 1130 0
  95 004c 002A     		cmp	r2, #0
  96 004e 02D1     		bne	.L11
  97 0050 02E0     		b	.L3
  98              	.LVL4:
  99              	.L9:
1118:Generated_Source\PSoC4/CapSense_Structure.c ****             }
 100              		.loc 1 1118 0
 101 0052 0120     		movs	r0, #1
 102 0054 00E0     		b	.L3
 103              	.LVL5:
 104              	.L11:
1131:Generated_Source\PSoC4/CapSense_Structure.c ****             {
1132:Generated_Source\PSoC4/CapSense_Structure.c ****                 result = CYRET_BAD_PARAM;
 105              		.loc 1 1132 0
 106 0056 0120     		movs	r0, #1
 107              	.LVL6:
 108              	.L3:
1133:Generated_Source\PSoC4/CapSense_Structure.c ****             }
1134:Generated_Source\PSoC4/CapSense_Structure.c ****         }
1135:Generated_Source\PSoC4/CapSense_Structure.c ****     #endif /* #if (0u != CapSense_SELF_TEST_EN) */
1136:Generated_Source\PSoC4/CapSense_Structure.c **** 
1137:Generated_Source\PSoC4/CapSense_Structure.c ****     if (CYRET_SUCCESS == result)
 109              		.loc 1 1137 0
 110 0058 0028     		cmp	r0, #0
 111 005a 11D1     		bne	.L5
1138:Generated_Source\PSoC4/CapSense_Structure.c ****     {
1139:Generated_Source\PSoC4/CapSense_Structure.c ****         /* Check parameter type, offset alignment */
1140:Generated_Source\PSoC4/CapSense_Structure.c ****         switch (pData->type)
ARM GAS  C:\Users\Admin\AppData\Local\Temp\ccu4y80a.s 			page 23


 112              		.loc 1 1140 0
 113 005c 022E     		cmp	r6, #2
 114 005e 04D0     		beq	.L6
 115 0060 032E     		cmp	r6, #3
 116 0062 05D0     		beq	.L7
 117 0064 012E     		cmp	r6, #1
 118 0066 06D1     		bne	.L15
 119 0068 0AE0     		b	.L5
 120              	.L6:
1141:Generated_Source\PSoC4/CapSense_Structure.c ****         {
1142:Generated_Source\PSoC4/CapSense_Structure.c ****         case DS_PARAM_TYPE_UINT16:
1143:Generated_Source\PSoC4/CapSense_Structure.c ****             if (0u != (pData->offset & UINT16_ALIGN_MASK))
 121              		.loc 1 1143 0
 122 006a EB07     		lsls	r3, r5, #31
 123 006c 05D4     		bmi	.L13
 124 006e 07E0     		b	.L5
 125              	.L7:
1144:Generated_Source\PSoC4/CapSense_Structure.c ****             {
1145:Generated_Source\PSoC4/CapSense_Structure.c ****                 result = CYRET_BAD_PARAM;
1146:Generated_Source\PSoC4/CapSense_Structure.c ****             }
1147:Generated_Source\PSoC4/CapSense_Structure.c ****             break;
1148:Generated_Source\PSoC4/CapSense_Structure.c **** 
1149:Generated_Source\PSoC4/CapSense_Structure.c ****         case DS_PARAM_TYPE_UINT32:
1150:Generated_Source\PSoC4/CapSense_Structure.c ****             if (0u != (pData->offset & UINT32_ALIGN_MASK))
 126              		.loc 1 1150 0
 127 0070 AB07     		lsls	r3, r5, #30
 128 0072 04D1     		bne	.L14
 129 0074 04E0     		b	.L5
 130              	.L15:
1151:Generated_Source\PSoC4/CapSense_Structure.c ****             {
1152:Generated_Source\PSoC4/CapSense_Structure.c ****                 result = CYRET_BAD_PARAM;
1153:Generated_Source\PSoC4/CapSense_Structure.c ****             }
1154:Generated_Source\PSoC4/CapSense_Structure.c ****             break;
1155:Generated_Source\PSoC4/CapSense_Structure.c **** 
1156:Generated_Source\PSoC4/CapSense_Structure.c ****         case DS_PARAM_TYPE_UINT8:
1157:Generated_Source\PSoC4/CapSense_Structure.c ****             break;
1158:Generated_Source\PSoC4/CapSense_Structure.c **** 
1159:Generated_Source\PSoC4/CapSense_Structure.c ****         default:
1160:Generated_Source\PSoC4/CapSense_Structure.c ****             result = CYRET_BAD_PARAM;
 131              		.loc 1 1160 0
 132 0076 0120     		movs	r0, #1
 133              	.LVL7:
 134 0078 02E0     		b	.L5
 135              	.LVL8:
 136              	.L13:
1145:Generated_Source\PSoC4/CapSense_Structure.c ****             }
 137              		.loc 1 1145 0
 138 007a 0120     		movs	r0, #1
 139              	.LVL9:
 140 007c 00E0     		b	.L5
 141              	.LVL10:
 142              	.L14:
1152:Generated_Source\PSoC4/CapSense_Structure.c ****             }
 143              		.loc 1 1152 0
 144 007e 0120     		movs	r0, #1
 145              	.LVL11:
 146              	.L5:
ARM GAS  C:\Users\Admin\AppData\Local\Temp\ccu4y80a.s 			page 24


1161:Generated_Source\PSoC4/CapSense_Structure.c ****             break;
1162:Generated_Source\PSoC4/CapSense_Structure.c ****         }
1163:Generated_Source\PSoC4/CapSense_Structure.c ****     }
1164:Generated_Source\PSoC4/CapSense_Structure.c **** 
1165:Generated_Source\PSoC4/CapSense_Structure.c ****     return result;
1166:Generated_Source\PSoC4/CapSense_Structure.c **** }
 147              		.loc 1 1166 0
 148              		@ sp needed
 149 0080 70BD     		pop	{r4, r5, r6, pc}
 150              		.cfi_endproc
 151              	.LFE2:
 152              		.size	DsParseParamId, .-DsParseParamId
 153 0082 C046     		.section	.text.CapSense_DsInitialize,"ax",%progbits
 154              		.align	2
 155              		.global	CapSense_DsInitialize
 156              		.code	16
 157              		.thumb_func
 158              		.type	CapSense_DsInitialize, %function
 159              	CapSense_DsInitialize:
 160              	.LFB1:
 861:Generated_Source\PSoC4/CapSense_Structure.c ****     #if ((CapSense_ENABLE == CapSense_CSX_EN) || \
 161              		.loc 1 861 0
 162              		.cfi_startproc
 163              		@ args = 0, pretend = 0, frame = 0
 164              		@ frame_needed = 0, uses_anonymous_args = 0
 165 0000 70B5     		push	{r4, r5, r6, lr}
 166              		.cfi_def_cfa_offset 16
 167              		.cfi_offset 4, -16
 168              		.cfi_offset 5, -12
 169              		.cfi_offset 6, -8
 170              		.cfi_offset 14, -4
 171              	.LVL12:
 882:Generated_Source\PSoC4/CapSense_Structure.c **** 
 172              		.loc 1 882 0
 173 0002 184C     		ldr	r4, .L21
 174 0004 EC22     		movs	r2, #236
 175 0006 5200     		lsls	r2, r2, #1
 176 0008 0021     		movs	r1, #0
 177 000a 2000     		movs	r0, r4
 178 000c FFF7FEFF 		bl	memset
 179              	.LVL13:
 885:Generated_Source\PSoC4/CapSense_Structure.c ****     CapSense_dsRam.deviceId = CapSense_DEVICE_ID;
 180              		.loc 1 885 0
 181 0010 154B     		ldr	r3, .L21+4
 182 0012 2380     		strh	r3, [r4]
 886:Generated_Source\PSoC4/CapSense_Structure.c ****     CapSense_dsRam.hwClock = CapSense_HW_CLOCK;
 183              		.loc 1 886 0
 184 0014 9023     		movs	r3, #144
 185 0016 1B01     		lsls	r3, r3, #4
 186 0018 6380     		strh	r3, [r4, #2]
 887:Generated_Source\PSoC4/CapSense_Structure.c **** 
 187              		.loc 1 887 0
 188 001a 144B     		ldr	r3, .L21+8
 189 001c A380     		strh	r3, [r4, #4]
 890:Generated_Source\PSoC4/CapSense_Structure.c **** 
 190              		.loc 1 890 0
 191 001e 0823     		movs	r3, #8
ARM GAS  C:\Users\Admin\AppData\Local\Temp\ccu4y80a.s 			page 25


 192 0020 2385     		strh	r3, [r4, #40]
 893:Generated_Source\PSoC4/CapSense_Structure.c **** 
 193              		.loc 1 893 0
 194 0022 0122     		movs	r2, #1
 195 0024 2233     		adds	r3, r3, #34
 196 0026 E254     		strb	r2, [r4, r3]
 917:Generated_Source\PSoC4/CapSense_Structure.c **** 
 197              		.loc 1 917 0
 198 0028 2000     		movs	r0, r4
 199 002a 2C30     		adds	r0, r0, #44
 200 002c 0E32     		adds	r2, r2, #14
 201 002e FF32     		adds	r2, r2, #255
 202 0030 0F49     		ldr	r1, .L21+12
 203 0032 7031     		adds	r1, r1, #112
 204 0034 FFF7FEFF 		bl	memcpy
 205              	.LVL14:
 878:Generated_Source\PSoC4/CapSense_Structure.c ****     #endif
 206              		.loc 1 878 0
 207 0038 0E49     		ldr	r1, .L21+16
 934:Generated_Source\PSoC4/CapSense_Structure.c **** 
 208              		.loc 1 934 0
 209 003a 0C00     		movs	r4, r1
 210 003c 1034     		adds	r4, r4, #16
 936:Generated_Source\PSoC4/CapSense_Structure.c ****         {
 211              		.loc 1 936 0
 212 003e 0F23     		movs	r3, #15
 213 0040 0CE0     		b	.L17
 214              	.LVL15:
 215              	.L20:
 938:Generated_Source\PSoC4/CapSense_Structure.c **** 
 216              		.loc 1 938 0
 217 0042 A268     		ldr	r2, [r4, #8]
 218              	.LVL16:
 940:Generated_Source\PSoC4/CapSense_Structure.c ****             {
 219              		.loc 1 940 0
 220 0044 238B     		ldrh	r3, [r4, #24]
 221              	.LVL17:
 222 0046 04E0     		b	.L18
 223              	.LVL18:
 224              	.L19:
 942:Generated_Source\PSoC4/CapSense_Structure.c ****                 ptrIdacInit++;
 225              		.loc 1 942 0
 226 0048 0B78     		ldrb	r3, [r1]
 227 004a 5372     		strb	r3, [r2, #9]
 943:Generated_Source\PSoC4/CapSense_Structure.c **** 
 228              		.loc 1 943 0
 229 004c 0131     		adds	r1, r1, #1
 230              	.LVL19:
 953:Generated_Source\PSoC4/CapSense_Structure.c ****             }
 231              		.loc 1 953 0
 232 004e 0A32     		adds	r2, r2, #10
 233              	.LVL20:
 940:Generated_Source\PSoC4/CapSense_Structure.c ****             {
 234              		.loc 1 940 0
 235 0050 0300     		movs	r3, r0
 236              	.LVL21:
 237              	.L18:
ARM GAS  C:\Users\Admin\AppData\Local\Temp\ccu4y80a.s 			page 26


 940:Generated_Source\PSoC4/CapSense_Structure.c ****             {
 238              		.loc 1 940 0 is_stmt 0 discriminator 1
 239 0052 581E     		subs	r0, r3, #1
 240              	.LVL22:
 241 0054 002B     		cmp	r3, #0
 242 0056 F7D1     		bne	.L19
 956:Generated_Source\PSoC4/CapSense_Structure.c ****         }
 243              		.loc 1 956 0 is_stmt 1
 244 0058 2034     		adds	r4, r4, #32
 245              	.LVL23:
 936:Generated_Source\PSoC4/CapSense_Structure.c ****         {
 246              		.loc 1 936 0
 247 005a 2B00     		movs	r3, r5
 248              	.LVL24:
 249              	.L17:
 936:Generated_Source\PSoC4/CapSense_Structure.c ****         {
 250              		.loc 1 936 0 is_stmt 0 discriminator 1
 251 005c 5D1E     		subs	r5, r3, #1
 252              	.LVL25:
 253 005e 002B     		cmp	r3, #0
 254 0060 EFD1     		bne	.L20
 987:Generated_Source\PSoC4/CapSense_Structure.c **** 
 255              		.loc 1 987 0 is_stmt 1
 256              		@ sp needed
 257              	.LVL26:
 258              	.LVL27:
 259 0062 70BD     		pop	{r4, r5, r6, pc}
 260              	.L22:
 261              		.align	2
 262              	.L21:
 263 0064 00000000 		.word	CapSense_dsRam
 264 0068 AC540000 		.word	21676
 265 006c B80B0000 		.word	3000
 266 0070 80010000 		.word	.LANCHOR1
 267 0074 00000000 		.word	.LANCHOR0
 268              		.cfi_endproc
 269              	.LFE1:
 270              		.size	CapSense_DsInitialize, .-CapSense_DsInitialize
 271              		.section	.text.CapSense_GetParam,"ax",%progbits
 272              		.align	2
 273              		.global	CapSense_GetParam
 274              		.code	16
 275              		.thumb_func
 276              		.type	CapSense_GetParam, %function
 277              	CapSense_GetParam:
 278              	.LFB3:
1167:Generated_Source\PSoC4/CapSense_Structure.c **** 
1168:Generated_Source\PSoC4/CapSense_Structure.c **** /*******************************************************************************
1169:Generated_Source\PSoC4/CapSense_Structure.c **** * Function Name: CapSense_GetParam
1170:Generated_Source\PSoC4/CapSense_Structure.c **** ****************************************************************************//**
1171:Generated_Source\PSoC4/CapSense_Structure.c **** *
1172:Generated_Source\PSoC4/CapSense_Structure.c **** * \brief
1173:Generated_Source\PSoC4/CapSense_Structure.c **** *  Gets the specified parameter value from the \ref group_structures.
1174:Generated_Source\PSoC4/CapSense_Structure.c **** *
1175:Generated_Source\PSoC4/CapSense_Structure.c **** * \details
1176:Generated_Source\PSoC4/CapSense_Structure.c **** *  This function gets the value of the specified parameter by the paramId
1177:Generated_Source\PSoC4/CapSense_Structure.c **** *  argument. The paramId for each register is available in the
ARM GAS  C:\Users\Admin\AppData\Local\Temp\ccu4y80a.s 			page 27


1178:Generated_Source\PSoC4/CapSense_Structure.c **** *  CapSense RegisterMap header file as
1179:Generated_Source\PSoC4/CapSense_Structure.c **** *  CapSense_<ParameterName>_PARAM_ID. The paramId is a special
1180:Generated_Source\PSoC4/CapSense_Structure.c **** *  enumerated value generated by the customizer. The format of paramId is as
1181:Generated_Source\PSoC4/CapSense_Structure.c **** *  follows:
1182:Generated_Source\PSoC4/CapSense_Structure.c **** *    1. [ byte 3 byte 2 byte 1 byte 0 ]
1183:Generated_Source\PSoC4/CapSense_Structure.c **** *    2. [ TTWFCCCC UIIIIIII MMMMMMMM LLLLLLLL ]
1184:Generated_Source\PSoC4/CapSense_Structure.c **** *    3. T - encodes the parameter type:
1185:Generated_Source\PSoC4/CapSense_Structure.c **** *      - 01b: uint8
1186:Generated_Source\PSoC4/CapSense_Structure.c **** *      - 10b: uint16
1187:Generated_Source\PSoC4/CapSense_Structure.c **** *      - 11b: uint32
1188:Generated_Source\PSoC4/CapSense_Structure.c **** *    4. W - indicates whether the parameter is writable:
1189:Generated_Source\PSoC4/CapSense_Structure.c **** *      - 0: ReadOnly
1190:Generated_Source\PSoC4/CapSense_Structure.c **** *      - 1: Read/Write
1191:Generated_Source\PSoC4/CapSense_Structure.c **** *    5. C - 4 bit CRC (X^3 + 1) of the whole paramId word, the C bits are
1192:Generated_Source\PSoC4/CapSense_Structure.c **** *       filled with 0s when the CRC is calculated.
1193:Generated_Source\PSoC4/CapSense_Structure.c **** *    6. U - indicates if the parameter affects the RAM Widget Object CRC.
1194:Generated_Source\PSoC4/CapSense_Structure.c **** *    7. I - specifies that the widgetId parameter belongs to
1195:Generated_Source\PSoC4/CapSense_Structure.c **** *    8. M,L - the parameter offset MSB and LSB accordingly in:
1196:Generated_Source\PSoC4/CapSense_Structure.c **** *      - Flash Data Structure if W bit is 0.
1197:Generated_Source\PSoC4/CapSense_Structure.c **** *      - RAM Data Structure if W bit is 1.
1198:Generated_Source\PSoC4/CapSense_Structure.c **** *
1199:Generated_Source\PSoC4/CapSense_Structure.c **** *  Refer to the \ref group_structures section for details of the data structure
1200:Generated_Source\PSoC4/CapSense_Structure.c **** *  organization and examples of its register access.
1201:Generated_Source\PSoC4/CapSense_Structure.c **** *
1202:Generated_Source\PSoC4/CapSense_Structure.c **** * \param paramId
1203:Generated_Source\PSoC4/CapSense_Structure.c **** *  Specifies the ID of parameter to get its value.
1204:Generated_Source\PSoC4/CapSense_Structure.c **** *  A macro for the parameter ID can be found in the CapSense RegisterMap header
1205:Generated_Source\PSoC4/CapSense_Structure.c **** *  file defined as CapSense_<ParameterName>_PARAM_ID.
1206:Generated_Source\PSoC4/CapSense_Structure.c **** *
1207:Generated_Source\PSoC4/CapSense_Structure.c **** * \param value
1208:Generated_Source\PSoC4/CapSense_Structure.c **** *  The pointer to a variable to be updated with the obtained value.
1209:Generated_Source\PSoC4/CapSense_Structure.c **** *
1210:Generated_Source\PSoC4/CapSense_Structure.c **** * \return
1211:Generated_Source\PSoC4/CapSense_Structure.c **** *  Returns the status of the operation:
1212:Generated_Source\PSoC4/CapSense_Structure.c **** *    - CYRET_SUCCESS - The operation is successfully completed.
1213:Generated_Source\PSoC4/CapSense_Structure.c **** *    - CYRET_BAD_PARAM - The input parameter is invalid.
1214:Generated_Source\PSoC4/CapSense_Structure.c **** *
1215:Generated_Source\PSoC4/CapSense_Structure.c **** *******************************************************************************/
1216:Generated_Source\PSoC4/CapSense_Structure.c **** cystatus CapSense_GetParam(uint32 paramId, uint32 *value)
1217:Generated_Source\PSoC4/CapSense_Structure.c **** {
 279              		.loc 1 1217 0
 280              		.cfi_startproc
 281              		@ args = 0, pretend = 0, frame = 8
 282              		@ frame_needed = 0, uses_anonymous_args = 0
 283              	.LVL28:
 284 0000 30B5     		push	{r4, r5, lr}
 285              		.cfi_def_cfa_offset 12
 286              		.cfi_offset 4, -12
 287              		.cfi_offset 5, -8
 288              		.cfi_offset 14, -4
 289 0002 83B0     		sub	sp, sp, #12
 290              		.cfi_def_cfa_offset 24
 291 0004 0D00     		movs	r5, r1
1218:Generated_Source\PSoC4/CapSense_Structure.c ****     PARAM_ID_STRUCT pData;
1219:Generated_Source\PSoC4/CapSense_Structure.c ****     cystatus result;
1220:Generated_Source\PSoC4/CapSense_Structure.c **** 
1221:Generated_Source\PSoC4/CapSense_Structure.c ****     union
ARM GAS  C:\Users\Admin\AppData\Local\Temp\ccu4y80a.s 			page 28


1222:Generated_Source\PSoC4/CapSense_Structure.c ****     {
1223:Generated_Source\PSoC4/CapSense_Structure.c ****         volatile void   const * ptr;
1224:Generated_Source\PSoC4/CapSense_Structure.c ****         volatile uint8  const * ptrUint8;
1225:Generated_Source\PSoC4/CapSense_Structure.c ****         volatile uint16 const * ptrUint16;
1226:Generated_Source\PSoC4/CapSense_Structure.c ****         volatile uint32 const * ptrUint32;
1227:Generated_Source\PSoC4/CapSense_Structure.c ****     } ptrData;
1228:Generated_Source\PSoC4/CapSense_Structure.c **** 
1229:Generated_Source\PSoC4/CapSense_Structure.c ****     result = DsParseParamId(paramId, &pData);
 292              		.loc 1 1229 0
 293 0006 6946     		mov	r1, sp
 294              	.LVL29:
 295 0008 FFF7FEFF 		bl	DsParseParamId
 296              	.LVL30:
 297 000c 041E     		subs	r4, r0, #0
 298              	.LVL31:
1230:Generated_Source\PSoC4/CapSense_Structure.c **** 
1231:Generated_Source\PSoC4/CapSense_Structure.c ****     /* Parse and validate paramId */
1232:Generated_Source\PSoC4/CapSense_Structure.c ****     if (CYRET_SUCCESS == result)
 299              		.loc 1 1232 0
 300 000e 1FD1     		bne	.L24
1233:Generated_Source\PSoC4/CapSense_Structure.c ****     {
1234:Generated_Source\PSoC4/CapSense_Structure.c ****         /* Get base address of parameter */
1235:Generated_Source\PSoC4/CapSense_Structure.c ****         if (0u == pData.flash)
 301              		.loc 1 1235 0
 302 0010 6B46     		mov	r3, sp
 303 0012 5B79     		ldrb	r3, [r3, #5]
 304 0014 002B     		cmp	r3, #0
 305 0016 01D1     		bne	.L25
1236:Generated_Source\PSoC4/CapSense_Structure.c ****         {
1237:Generated_Source\PSoC4/CapSense_Structure.c ****             ptrData.ptr = &CapSense_dsRam;
 306              		.loc 1 1237 0
 307 0018 0F4A     		ldr	r2, .L30
 308              	.LVL32:
 309 001a 02E0     		b	.L26
 310              	.L25:
1238:Generated_Source\PSoC4/CapSense_Structure.c ****         }
1239:Generated_Source\PSoC4/CapSense_Structure.c ****         else
1240:Generated_Source\PSoC4/CapSense_Structure.c ****         {
1241:Generated_Source\PSoC4/CapSense_Structure.c ****             ptrData.ptr = &CapSense_dsFlash;
 311              		.loc 1 1241 0
 312 001c 0F4B     		ldr	r3, .L30+4
 313 001e 1033     		adds	r3, r3, #16
 314 0020 1A00     		movs	r2, r3
 315              	.L26:
1242:Generated_Source\PSoC4/CapSense_Structure.c ****         }
1243:Generated_Source\PSoC4/CapSense_Structure.c **** 
1244:Generated_Source\PSoC4/CapSense_Structure.c ****         /* Add offset to base address */
1245:Generated_Source\PSoC4/CapSense_Structure.c ****         ptrData.ptrUint8 += pData.offset;
 316              		.loc 1 1245 0
 317 0022 6B46     		mov	r3, sp
 318 0024 1B88     		ldrh	r3, [r3]
 319              	.LVL33:
 320 0026 D318     		adds	r3, r2, r3
1246:Generated_Source\PSoC4/CapSense_Structure.c **** 
1247:Generated_Source\PSoC4/CapSense_Structure.c ****         /* Read data */
1248:Generated_Source\PSoC4/CapSense_Structure.c ****         if (DS_PARAM_TYPE_UINT8 == pData.type)
 321              		.loc 1 1248 0
ARM GAS  C:\Users\Admin\AppData\Local\Temp\ccu4y80a.s 			page 29


 322 0028 6A46     		mov	r2, sp
 323              	.LVL34:
 324 002a D279     		ldrb	r2, [r2, #7]
 325 002c 012A     		cmp	r2, #1
 326 002e 02D1     		bne	.L27
1249:Generated_Source\PSoC4/CapSense_Structure.c ****         {
1250:Generated_Source\PSoC4/CapSense_Structure.c ****             *value = (uint32) (*ptrData.ptrUint8);
 327              		.loc 1 1250 0
 328 0030 1B78     		ldrb	r3, [r3]
 329 0032 2B60     		str	r3, [r5]
 330 0034 0CE0     		b	.L24
 331              	.L27:
1251:Generated_Source\PSoC4/CapSense_Structure.c ****         }
1252:Generated_Source\PSoC4/CapSense_Structure.c ****         else if (DS_PARAM_TYPE_UINT16 == pData.type)
 332              		.loc 1 1252 0
 333 0036 022A     		cmp	r2, #2
 334 0038 02D1     		bne	.L28
1253:Generated_Source\PSoC4/CapSense_Structure.c ****         {
1254:Generated_Source\PSoC4/CapSense_Structure.c ****             *value = (uint32) (*ptrData.ptrUint16);
 335              		.loc 1 1254 0
 336 003a 1B88     		ldrh	r3, [r3]
 337 003c 2B60     		str	r3, [r5]
 338 003e 07E0     		b	.L24
 339              	.L28:
1255:Generated_Source\PSoC4/CapSense_Structure.c ****         }
1256:Generated_Source\PSoC4/CapSense_Structure.c ****         else if (DS_PARAM_TYPE_UINT32 == pData.type)
 340              		.loc 1 1256 0
 341 0040 032A     		cmp	r2, #3
 342 0042 02D1     		bne	.L29
1257:Generated_Source\PSoC4/CapSense_Structure.c ****         {
1258:Generated_Source\PSoC4/CapSense_Structure.c ****             *value = *ptrData.ptrUint32;
 343              		.loc 1 1258 0
 344 0044 1B68     		ldr	r3, [r3]
 345 0046 2B60     		str	r3, [r5]
 346 0048 02E0     		b	.L24
 347              	.L29:
1259:Generated_Source\PSoC4/CapSense_Structure.c ****         }
1260:Generated_Source\PSoC4/CapSense_Structure.c ****         else
1261:Generated_Source\PSoC4/CapSense_Structure.c ****         {
1262:Generated_Source\PSoC4/CapSense_Structure.c ****             /* Parameter comes here already validated. */
1263:Generated_Source\PSoC4/CapSense_Structure.c ****             CYASSERT(0u);
 348              		.loc 1 1263 0 discriminator 1
 349 004a 0020     		movs	r0, #0
 350              	.LVL35:
 351 004c FFF7FEFF 		bl	CyHalt
 352              	.LVL36:
 353              	.L24:
1264:Generated_Source\PSoC4/CapSense_Structure.c ****         }
1265:Generated_Source\PSoC4/CapSense_Structure.c ****     }
1266:Generated_Source\PSoC4/CapSense_Structure.c **** 
1267:Generated_Source\PSoC4/CapSense_Structure.c ****     return result;
1268:Generated_Source\PSoC4/CapSense_Structure.c **** }
 354              		.loc 1 1268 0
 355 0050 2000     		movs	r0, r4
 356 0052 03B0     		add	sp, sp, #12
 357              		@ sp needed
 358              	.LVL37:
ARM GAS  C:\Users\Admin\AppData\Local\Temp\ccu4y80a.s 			page 30


 359              	.LVL38:
 360 0054 30BD     		pop	{r4, r5, pc}
 361              	.L31:
 362 0056 C046     		.align	2
 363              	.L30:
 364 0058 00000000 		.word	CapSense_dsRam
 365 005c 00000000 		.word	.LANCHOR0
 366              		.cfi_endproc
 367              	.LFE3:
 368              		.size	CapSense_GetParam, .-CapSense_GetParam
 369              		.section	.text.CapSense_SetParam,"ax",%progbits
 370              		.align	2
 371              		.global	CapSense_SetParam
 372              		.code	16
 373              		.thumb_func
 374              		.type	CapSense_SetParam, %function
 375              	CapSense_SetParam:
 376              	.LFB4:
1269:Generated_Source\PSoC4/CapSense_Structure.c **** 
1270:Generated_Source\PSoC4/CapSense_Structure.c **** 
1271:Generated_Source\PSoC4/CapSense_Structure.c **** /*******************************************************************************
1272:Generated_Source\PSoC4/CapSense_Structure.c **** * Function Name: CapSense_SetParam
1273:Generated_Source\PSoC4/CapSense_Structure.c **** ****************************************************************************//**
1274:Generated_Source\PSoC4/CapSense_Structure.c **** *
1275:Generated_Source\PSoC4/CapSense_Structure.c **** * \brief
1276:Generated_Source\PSoC4/CapSense_Structure.c **** *  Sets a new value for the specified parameter in the \ref group_structures.
1277:Generated_Source\PSoC4/CapSense_Structure.c **** *
1278:Generated_Source\PSoC4/CapSense_Structure.c **** * \details
1279:Generated_Source\PSoC4/CapSense_Structure.c **** *  This function sets the value of the specified parameter by the paramId
1280:Generated_Source\PSoC4/CapSense_Structure.c **** *  argument. The paramId for each register is available in the
1281:Generated_Source\PSoC4/CapSense_Structure.c **** *  CapSense RegisterMap header file as
1282:Generated_Source\PSoC4/CapSense_Structure.c **** *  CapSense_<ParameterName>_PARAM_ID. The paramId is a special
1283:Generated_Source\PSoC4/CapSense_Structure.c **** *  enumerated value generated by the customizer. The format of paramId is as
1284:Generated_Source\PSoC4/CapSense_Structure.c **** *  follows:
1285:Generated_Source\PSoC4/CapSense_Structure.c **** *    1. [ byte 3 byte 2 byte 1 byte 0 ]
1286:Generated_Source\PSoC4/CapSense_Structure.c **** *    2. [ TTWFCCCC UIIIIIII MMMMMMMM LLLLLLLL ]
1287:Generated_Source\PSoC4/CapSense_Structure.c **** *    3. T - encodes the parameter type:
1288:Generated_Source\PSoC4/CapSense_Structure.c **** *      - 01b: uint8
1289:Generated_Source\PSoC4/CapSense_Structure.c **** *      - 10b: uint16
1290:Generated_Source\PSoC4/CapSense_Structure.c **** *      - 11b: uint32
1291:Generated_Source\PSoC4/CapSense_Structure.c **** *    4. W - indicates whether the parameter is writable:
1292:Generated_Source\PSoC4/CapSense_Structure.c **** *      - 0: ReadOnly
1293:Generated_Source\PSoC4/CapSense_Structure.c **** *      - 1: Read/Write
1294:Generated_Source\PSoC4/CapSense_Structure.c **** *    5. C - 4 bit CRC (X^3 + 1) of the whole paramId word, the C bits are
1295:Generated_Source\PSoC4/CapSense_Structure.c **** *       filled with 0s when the CRC is calculated.
1296:Generated_Source\PSoC4/CapSense_Structure.c **** *    6. U - indicates if the parameter affects the RAM Widget Object CRC.
1297:Generated_Source\PSoC4/CapSense_Structure.c **** *    7. I - specifies that the widgetId parameter belongs to
1298:Generated_Source\PSoC4/CapSense_Structure.c **** *    8. M,L - the parameter offset MSB and LSB accordingly in:
1299:Generated_Source\PSoC4/CapSense_Structure.c **** *      - Flash Data Structure if W bit is 0.
1300:Generated_Source\PSoC4/CapSense_Structure.c **** *      - RAM Data Structure if W bit is 1.
1301:Generated_Source\PSoC4/CapSense_Structure.c **** *
1302:Generated_Source\PSoC4/CapSense_Structure.c **** *  Refer to the \ref group_structures section for details of the data structure
1303:Generated_Source\PSoC4/CapSense_Structure.c **** *  organization and examples of its register access.
1304:Generated_Source\PSoC4/CapSense_Structure.c **** *
1305:Generated_Source\PSoC4/CapSense_Structure.c **** *  This function writes specified value into the desired register without
1306:Generated_Source\PSoC4/CapSense_Structure.c **** *  other registers update. It is application layer responsibility to keep all
1307:Generated_Source\PSoC4/CapSense_Structure.c **** *  the data structure registers aligned. Repeated call of
ARM GAS  C:\Users\Admin\AppData\Local\Temp\ccu4y80a.s 			page 31


1308:Generated_Source\PSoC4/CapSense_Structure.c **** *  CapSense_Start() function helps aligning dependent register values.
1309:Generated_Source\PSoC4/CapSense_Structure.c **** *
1310:Generated_Source\PSoC4/CapSense_Structure.c **** * \param paramId
1311:Generated_Source\PSoC4/CapSense_Structure.c **** *  Specifies the ID of parameter to set its value.
1312:Generated_Source\PSoC4/CapSense_Structure.c **** *  A macro for the parameter ID can be found in the CapSense RegisterMap header
1313:Generated_Source\PSoC4/CapSense_Structure.c **** *  file defined as CapSense_<ParameterName>_PARAM_ID.
1314:Generated_Source\PSoC4/CapSense_Structure.c **** 
1315:Generated_Source\PSoC4/CapSense_Structure.c **** * \param value
1316:Generated_Source\PSoC4/CapSense_Structure.c **** *  Specifies the new parameter's value.
1317:Generated_Source\PSoC4/CapSense_Structure.c **** *
1318:Generated_Source\PSoC4/CapSense_Structure.c **** * \return
1319:Generated_Source\PSoC4/CapSense_Structure.c **** *  Returns the status of the operation:
1320:Generated_Source\PSoC4/CapSense_Structure.c **** *    - CYRET_SUCCESS - The operation is successfully completed.
1321:Generated_Source\PSoC4/CapSense_Structure.c **** *    - CYRET_BAD_PARAM - The input parameter is invalid.
1322:Generated_Source\PSoC4/CapSense_Structure.c **** *
1323:Generated_Source\PSoC4/CapSense_Structure.c **** *******************************************************************************/
1324:Generated_Source\PSoC4/CapSense_Structure.c **** cystatus CapSense_SetParam(uint32 paramId, uint32 value)
1325:Generated_Source\PSoC4/CapSense_Structure.c **** {
 377              		.loc 1 1325 0
 378              		.cfi_startproc
 379              		@ args = 0, pretend = 0, frame = 8
 380              		@ frame_needed = 0, uses_anonymous_args = 0
 381              	.LVL39:
 382 0000 30B5     		push	{r4, r5, lr}
 383              		.cfi_def_cfa_offset 12
 384              		.cfi_offset 4, -12
 385              		.cfi_offset 5, -8
 386              		.cfi_offset 14, -4
 387 0002 83B0     		sub	sp, sp, #12
 388              		.cfi_def_cfa_offset 24
 389 0004 0D00     		movs	r5, r1
1326:Generated_Source\PSoC4/CapSense_Structure.c ****     cystatus result;
1327:Generated_Source\PSoC4/CapSense_Structure.c ****     PARAM_ID_STRUCT pData;
1328:Generated_Source\PSoC4/CapSense_Structure.c **** 
1329:Generated_Source\PSoC4/CapSense_Structure.c ****     union
1330:Generated_Source\PSoC4/CapSense_Structure.c ****     {
1331:Generated_Source\PSoC4/CapSense_Structure.c ****         volatile void   * ptr;
1332:Generated_Source\PSoC4/CapSense_Structure.c ****         volatile uint8  * ptrUint8;
1333:Generated_Source\PSoC4/CapSense_Structure.c ****         volatile uint16 * ptrUint16;
1334:Generated_Source\PSoC4/CapSense_Structure.c ****         volatile uint32 * ptrUint32;
1335:Generated_Source\PSoC4/CapSense_Structure.c ****     } ptrData;
1336:Generated_Source\PSoC4/CapSense_Structure.c **** 
1337:Generated_Source\PSoC4/CapSense_Structure.c ****     result = DsParseParamId(paramId, &pData);
 390              		.loc 1 1337 0
 391 0006 6946     		mov	r1, sp
 392              	.LVL40:
 393 0008 FFF7FEFF 		bl	DsParseParamId
 394              	.LVL41:
 395 000c 041E     		subs	r4, r0, #0
 396              	.LVL42:
1338:Generated_Source\PSoC4/CapSense_Structure.c **** 
1339:Generated_Source\PSoC4/CapSense_Structure.c ****     /* verify if parameter is writable */
1340:Generated_Source\PSoC4/CapSense_Structure.c ****     if (CYRET_SUCCESS == result)
 397              		.loc 1 1340 0
 398 000e 04D1     		bne	.L33
1341:Generated_Source\PSoC4/CapSense_Structure.c ****     {
1342:Generated_Source\PSoC4/CapSense_Structure.c ****         if (0u == pData.rw)
ARM GAS  C:\Users\Admin\AppData\Local\Temp\ccu4y80a.s 			page 32


 399              		.loc 1 1342 0
 400 0010 6B46     		mov	r3, sp
 401 0012 9B79     		ldrb	r3, [r3, #6]
 402 0014 002B     		cmp	r3, #0
 403 0016 00D1     		bne	.L33
1343:Generated_Source\PSoC4/CapSense_Structure.c ****         {
1344:Generated_Source\PSoC4/CapSense_Structure.c ****             result = CYRET_BAD_PARAM;
 404              		.loc 1 1344 0
 405 0018 0134     		adds	r4, r4, #1
 406              	.L33:
 407              	.LVL43:
1345:Generated_Source\PSoC4/CapSense_Structure.c ****         }
1346:Generated_Source\PSoC4/CapSense_Structure.c ****     }
1347:Generated_Source\PSoC4/CapSense_Structure.c **** 
1348:Generated_Source\PSoC4/CapSense_Structure.c ****     /* Parse and validate paramId */
1349:Generated_Source\PSoC4/CapSense_Structure.c ****     if (CYRET_SUCCESS == result)
 408              		.loc 1 1349 0
 409 001a 002C     		cmp	r4, #0
 410 001c 16D1     		bne	.L34
1350:Generated_Source\PSoC4/CapSense_Structure.c ****     {
1351:Generated_Source\PSoC4/CapSense_Structure.c ****         /* Get base address of parameter */
1352:Generated_Source\PSoC4/CapSense_Structure.c ****         ptrData.ptr = &CapSense_dsRam;
1353:Generated_Source\PSoC4/CapSense_Structure.c **** 
1354:Generated_Source\PSoC4/CapSense_Structure.c ****         /* Add offset to base address */
1355:Generated_Source\PSoC4/CapSense_Structure.c ****         ptrData.ptrUint8 += pData.offset;
 411              		.loc 1 1355 0
 412 001e 6B46     		mov	r3, sp
 413 0020 1A88     		ldrh	r2, [r3]
 414 0022 0C4B     		ldr	r3, .L39
 415 0024 D318     		adds	r3, r2, r3
1356:Generated_Source\PSoC4/CapSense_Structure.c **** 
1357:Generated_Source\PSoC4/CapSense_Structure.c ****         /* Write data */
1358:Generated_Source\PSoC4/CapSense_Structure.c ****         if (DS_PARAM_TYPE_UINT8 == pData.type)
 416              		.loc 1 1358 0
 417 0026 6A46     		mov	r2, sp
 418 0028 D279     		ldrb	r2, [r2, #7]
 419 002a 012A     		cmp	r2, #1
 420 002c 02D1     		bne	.L35
1359:Generated_Source\PSoC4/CapSense_Structure.c ****         {
1360:Generated_Source\PSoC4/CapSense_Structure.c ****             *ptrData.ptrUint8 = LO8(value);
 421              		.loc 1 1360 0
 422 002e EDB2     		uxtb	r5, r5
 423              	.LVL44:
 424 0030 1D70     		strb	r5, [r3]
 425 0032 0BE0     		b	.L34
 426              	.LVL45:
 427              	.L35:
1361:Generated_Source\PSoC4/CapSense_Structure.c ****         }
1362:Generated_Source\PSoC4/CapSense_Structure.c ****         else if (DS_PARAM_TYPE_UINT16 == pData.type)
 428              		.loc 1 1362 0
 429 0034 022A     		cmp	r2, #2
 430 0036 02D1     		bne	.L36
1363:Generated_Source\PSoC4/CapSense_Structure.c ****         {
1364:Generated_Source\PSoC4/CapSense_Structure.c ****             *ptrData.ptrUint16 = LO16(value);
 431              		.loc 1 1364 0
 432 0038 ADB2     		uxth	r5, r5
 433              	.LVL46:
ARM GAS  C:\Users\Admin\AppData\Local\Temp\ccu4y80a.s 			page 33


 434 003a 1D80     		strh	r5, [r3]
 435 003c 06E0     		b	.L34
 436              	.LVL47:
 437              	.L36:
1365:Generated_Source\PSoC4/CapSense_Structure.c ****         }
1366:Generated_Source\PSoC4/CapSense_Structure.c ****         else if (DS_PARAM_TYPE_UINT32 == pData.type)
 438              		.loc 1 1366 0
 439 003e 032A     		cmp	r2, #3
 440 0040 01D1     		bne	.L37
1367:Generated_Source\PSoC4/CapSense_Structure.c ****         {
1368:Generated_Source\PSoC4/CapSense_Structure.c ****             *ptrData.ptrUint32 = value;
 441              		.loc 1 1368 0
 442 0042 1D60     		str	r5, [r3]
 443 0044 02E0     		b	.L34
 444              	.L37:
1369:Generated_Source\PSoC4/CapSense_Structure.c ****         }
1370:Generated_Source\PSoC4/CapSense_Structure.c ****         else
1371:Generated_Source\PSoC4/CapSense_Structure.c ****         {
1372:Generated_Source\PSoC4/CapSense_Structure.c ****             /* Parameter comes here already validated. */
1373:Generated_Source\PSoC4/CapSense_Structure.c ****             CYASSERT(0u);
 445              		.loc 1 1373 0 discriminator 1
 446 0046 0020     		movs	r0, #0
 447 0048 FFF7FEFF 		bl	CyHalt
 448              	.LVL48:
 449              	.L34:
1374:Generated_Source\PSoC4/CapSense_Structure.c ****         }
1375:Generated_Source\PSoC4/CapSense_Structure.c **** 
1376:Generated_Source\PSoC4/CapSense_Structure.c ****         #if (CapSense_ENABLE == (CapSense_TST_WDGT_CRC_EN || CapSense_TST_GLOBAL_CRC_EN))
1377:Generated_Source\PSoC4/CapSense_Structure.c ****             /* Update widget or global CRC if self-test is enabled and parameter affects it */
1378:Generated_Source\PSoC4/CapSense_Structure.c ****             if (0u != pData.affectsCrc)
1379:Generated_Source\PSoC4/CapSense_Structure.c ****             {
1380:Generated_Source\PSoC4/CapSense_Structure.c ****                 if ((ptrData.ptrUint16 >= &CapSense_dsRam.csd0Config) &&
1381:Generated_Source\PSoC4/CapSense_Structure.c ****                     (ptrData.ptrUint16 <  &CapSense_dsRam.glbCrc))
1382:Generated_Source\PSoC4/CapSense_Structure.c ****                 {
1383:Generated_Source\PSoC4/CapSense_Structure.c **** 
1384:Generated_Source\PSoC4/CapSense_Structure.c ****                     #if (CapSense_ENABLE == CapSense_TST_GLOBAL_CRC_EN)
1385:Generated_Source\PSoC4/CapSense_Structure.c ****                         CapSense_DsUpdateGlobalCrc();
1386:Generated_Source\PSoC4/CapSense_Structure.c ****                     #endif /* (CapSense_ENABLE == CapSense_TST_GLOBAL_CRC_EN) */
1387:Generated_Source\PSoC4/CapSense_Structure.c **** 
1388:Generated_Source\PSoC4/CapSense_Structure.c ****                 }
1389:Generated_Source\PSoC4/CapSense_Structure.c ****                 else
1390:Generated_Source\PSoC4/CapSense_Structure.c ****                 {
1391:Generated_Source\PSoC4/CapSense_Structure.c ****                     #if (CapSense_ENABLE == CapSense_TST_WDGT_CRC_EN)
1392:Generated_Source\PSoC4/CapSense_Structure.c ****                         CapSense_DsUpdateWidgetCrc((uint32)pData.widgetId);
1393:Generated_Source\PSoC4/CapSense_Structure.c ****                     #endif /* (CapSense_ENABLE == CapSense_TST_WDGT_CRC_EN) */
1394:Generated_Source\PSoC4/CapSense_Structure.c ****                 }
1395:Generated_Source\PSoC4/CapSense_Structure.c ****             }
1396:Generated_Source\PSoC4/CapSense_Structure.c ****         #endif /* (CapSense_ENABLE == (CapSense_TST_WDGT_CRC_EN || CapSense_TST_GLOBAL_CRC_EN)) */
1397:Generated_Source\PSoC4/CapSense_Structure.c ****     }
1398:Generated_Source\PSoC4/CapSense_Structure.c **** 
1399:Generated_Source\PSoC4/CapSense_Structure.c ****     return result;
1400:Generated_Source\PSoC4/CapSense_Structure.c **** }
 450              		.loc 1 1400 0
 451 004c 2000     		movs	r0, r4
 452 004e 03B0     		add	sp, sp, #12
 453              		@ sp needed
 454              	.LVL49:
ARM GAS  C:\Users\Admin\AppData\Local\Temp\ccu4y80a.s 			page 34


 455 0050 30BD     		pop	{r4, r5, pc}
 456              	.L40:
 457 0052 C046     		.align	2
 458              	.L39:
 459 0054 00000000 		.word	CapSense_dsRam
 460              		.cfi_endproc
 461              	.LFE4:
 462              		.size	CapSense_SetParam, .-CapSense_SetParam
 463              		.section	.text.CapSense_IsAnyWidgetActive,"ax",%progbits
 464              		.align	2
 465              		.global	CapSense_IsAnyWidgetActive
 466              		.code	16
 467              		.thumb_func
 468              		.type	CapSense_IsAnyWidgetActive, %function
 469              	CapSense_IsAnyWidgetActive:
 470              	.LFB5:
1401:Generated_Source\PSoC4/CapSense_Structure.c **** 
1402:Generated_Source\PSoC4/CapSense_Structure.c **** /*******************************************************************************
1403:Generated_Source\PSoC4/CapSense_Structure.c **** * Function Name: CapSense_IsAnyWidgetActive
1404:Generated_Source\PSoC4/CapSense_Structure.c **** ****************************************************************************//**
1405:Generated_Source\PSoC4/CapSense_Structure.c **** *
1406:Generated_Source\PSoC4/CapSense_Structure.c **** * \brief
1407:Generated_Source\PSoC4/CapSense_Structure.c **** *  Reports if any widget has detected a touch.
1408:Generated_Source\PSoC4/CapSense_Structure.c **** *
1409:Generated_Source\PSoC4/CapSense_Structure.c **** * \details
1410:Generated_Source\PSoC4/CapSense_Structure.c **** *  This function reports if any widget has detected a touch or not by extracting
1411:Generated_Source\PSoC4/CapSense_Structure.c **** *  information from the wdgtStatus registers
1412:Generated_Source\PSoC4/CapSense_Structure.c **** *  (CapSense_WDGT_STATUS<X>_VALUE). This function does not process a
1413:Generated_Source\PSoC4/CapSense_Structure.c **** *  widget but extracts processed results from the \ref group_structures.
1414:Generated_Source\PSoC4/CapSense_Structure.c **** *
1415:Generated_Source\PSoC4/CapSense_Structure.c **** * \return
1416:Generated_Source\PSoC4/CapSense_Structure.c **** *   Returns the touch detection status of all the widgets:
1417:Generated_Source\PSoC4/CapSense_Structure.c **** *     - Zero - No touch is detected in all the widgets or sensors.
1418:Generated_Source\PSoC4/CapSense_Structure.c **** *     - Non-zero - At least one widget or sensor detected a touch.
1419:Generated_Source\PSoC4/CapSense_Structure.c **** *
1420:Generated_Source\PSoC4/CapSense_Structure.c **** *******************************************************************************/
1421:Generated_Source\PSoC4/CapSense_Structure.c **** uint32 CapSense_IsAnyWidgetActive(void)
1422:Generated_Source\PSoC4/CapSense_Structure.c **** {
 471              		.loc 1 1422 0
 472              		.cfi_startproc
 473              		@ args = 0, pretend = 0, frame = 0
 474              		@ frame_needed = 0, uses_anonymous_args = 0
 475              		@ link register save eliminated.
 476              	.LVL50:
1423:Generated_Source\PSoC4/CapSense_Structure.c ****     uint32 result = 0Lu;
1424:Generated_Source\PSoC4/CapSense_Structure.c ****     uint32 wdWord;
1425:Generated_Source\PSoC4/CapSense_Structure.c **** 
1426:Generated_Source\PSoC4/CapSense_Structure.c ****     for (wdWord = CapSense_WDGT_STATUS_WORDS; wdWord-- > 0u;)
 477              		.loc 1 1426 0
 478 0000 0123     		movs	r3, #1
1423:Generated_Source\PSoC4/CapSense_Structure.c ****     uint32 result = 0Lu;
 479              		.loc 1 1423 0
 480 0002 0020     		movs	r0, #0
 481              		.loc 1 1426 0
 482 0004 06E0     		b	.L42
 483              	.LVL51:
 484              	.L43:
ARM GAS  C:\Users\Admin\AppData\Local\Temp\ccu4y80a.s 			page 35


1427:Generated_Source\PSoC4/CapSense_Structure.c ****     {
1428:Generated_Source\PSoC4/CapSense_Structure.c ****         result |= CapSense_dsRam.wdgtStatus[wdWord];
 485              		.loc 1 1428 0
 486 0006 131D     		adds	r3, r2, #4
 487 0008 9B00     		lsls	r3, r3, #2
 488 000a 0449     		ldr	r1, .L44
 489 000c CB18     		adds	r3, r1, r3
 490 000e 5B68     		ldr	r3, [r3, #4]
 491 0010 1843     		orrs	r0, r3
 492              	.LVL52:
1426:Generated_Source\PSoC4/CapSense_Structure.c ****     {
 493              		.loc 1 1426 0
 494 0012 1300     		movs	r3, r2
 495              	.LVL53:
 496              	.L42:
1426:Generated_Source\PSoC4/CapSense_Structure.c ****     {
 497              		.loc 1 1426 0 is_stmt 0 discriminator 1
 498 0014 5A1E     		subs	r2, r3, #1
 499              	.LVL54:
 500 0016 002B     		cmp	r3, #0
 501 0018 F5D1     		bne	.L43
1429:Generated_Source\PSoC4/CapSense_Structure.c ****     }
1430:Generated_Source\PSoC4/CapSense_Structure.c **** 
1431:Generated_Source\PSoC4/CapSense_Structure.c ****     return result;
1432:Generated_Source\PSoC4/CapSense_Structure.c **** }
 502              		.loc 1 1432 0 is_stmt 1
 503              		@ sp needed
 504 001a 7047     		bx	lr
 505              	.L45:
 506              		.align	2
 507              	.L44:
 508 001c 00000000 		.word	CapSense_dsRam
 509              		.cfi_endproc
 510              	.LFE5:
 511              		.size	CapSense_IsAnyWidgetActive, .-CapSense_IsAnyWidgetActive
 512              		.section	.text.CapSense_IsWidgetActive,"ax",%progbits
 513              		.align	2
 514              		.global	CapSense_IsWidgetActive
 515              		.code	16
 516              		.thumb_func
 517              		.type	CapSense_IsWidgetActive, %function
 518              	CapSense_IsWidgetActive:
 519              	.LFB6:
1433:Generated_Source\PSoC4/CapSense_Structure.c **** 
1434:Generated_Source\PSoC4/CapSense_Structure.c **** 
1435:Generated_Source\PSoC4/CapSense_Structure.c **** /*******************************************************************************
1436:Generated_Source\PSoC4/CapSense_Structure.c **** * Function Name: CapSense_IsWidgetActive
1437:Generated_Source\PSoC4/CapSense_Structure.c **** ****************************************************************************//**
1438:Generated_Source\PSoC4/CapSense_Structure.c **** *
1439:Generated_Source\PSoC4/CapSense_Structure.c **** * \brief
1440:Generated_Source\PSoC4/CapSense_Structure.c **** *  Reports if the specified widget detects a touch on any of its sensors.
1441:Generated_Source\PSoC4/CapSense_Structure.c **** *
1442:Generated_Source\PSoC4/CapSense_Structure.c **** * \details
1443:Generated_Source\PSoC4/CapSense_Structure.c **** *  This function reports if the specified widget has detected a touch or not by
1444:Generated_Source\PSoC4/CapSense_Structure.c **** *  extracting information from the wdgtStatus registers
1445:Generated_Source\PSoC4/CapSense_Structure.c **** *  (CapSense_WDGT_STATUS<X>_VALUE). This function does not process the
1446:Generated_Source\PSoC4/CapSense_Structure.c **** *  widget but extracts processed results from the \ref group_structures.
ARM GAS  C:\Users\Admin\AppData\Local\Temp\ccu4y80a.s 			page 36


1447:Generated_Source\PSoC4/CapSense_Structure.c **** *
1448:Generated_Source\PSoC4/CapSense_Structure.c **** * \param widgetId
1449:Generated_Source\PSoC4/CapSense_Structure.c **** *  Specifies the ID number of the widget to get its status.
1450:Generated_Source\PSoC4/CapSense_Structure.c **** *  A macro for the widget ID can be found in the CapSense Configuration header
1451:Generated_Source\PSoC4/CapSense_Structure.c **** *  file defined as CapSense_<WidgetName>_WDGT_ID.
1452:Generated_Source\PSoC4/CapSense_Structure.c **** *
1453:Generated_Source\PSoC4/CapSense_Structure.c **** * \return
1454:Generated_Source\PSoC4/CapSense_Structure.c **** *  Returns the touch detection status of the specified widgets:
1455:Generated_Source\PSoC4/CapSense_Structure.c **** *    - Zero - No touch is detected in the specified widget or a wrong widgetId
1456:Generated_Source\PSoC4/CapSense_Structure.c **** *      is specified.
1457:Generated_Source\PSoC4/CapSense_Structure.c **** *    - Non-zero if at least one sensor of the specified widget is active, i.e.
1458:Generated_Source\PSoC4/CapSense_Structure.c **** *      a touch is detected.
1459:Generated_Source\PSoC4/CapSense_Structure.c **** *
1460:Generated_Source\PSoC4/CapSense_Structure.c **** *******************************************************************************/
1461:Generated_Source\PSoC4/CapSense_Structure.c **** uint32 CapSense_IsWidgetActive(uint32 widgetId)
1462:Generated_Source\PSoC4/CapSense_Structure.c **** {
 520              		.loc 1 1462 0
 521              		.cfi_startproc
 522              		@ args = 0, pretend = 0, frame = 0
 523              		@ frame_needed = 0, uses_anonymous_args = 0
 524              		@ link register save eliminated.
 525              	.LVL55:
1463:Generated_Source\PSoC4/CapSense_Structure.c ****     uint32 result = 0Lu;
1464:Generated_Source\PSoC4/CapSense_Structure.c **** 
1465:Generated_Source\PSoC4/CapSense_Structure.c ****     if (widgetId < CapSense_TOTAL_WIDGETS)
 526              		.loc 1 1465 0
 527 0000 0E28     		cmp	r0, #14
 528 0002 0BD8     		bhi	.L48
1466:Generated_Source\PSoC4/CapSense_Structure.c ****     {
1467:Generated_Source\PSoC4/CapSense_Structure.c ****         result = CapSense_GET_WIDGET_ACTIVE_STATUS(widgetId);
 529              		.loc 1 1467 0
 530 0004 1F23     		movs	r3, #31
 531 0006 0340     		ands	r3, r0
 532 0008 0122     		movs	r2, #1
 533 000a 9A40     		lsls	r2, r2, r3
 534 000c 4009     		lsrs	r0, r0, #5
 535              	.LVL56:
 536 000e 031D     		adds	r3, r0, #4
 537 0010 9B00     		lsls	r3, r3, #2
 538 0012 0348     		ldr	r0, .L49
 539 0014 C318     		adds	r3, r0, r3
 540 0016 5868     		ldr	r0, [r3, #4]
 541 0018 1040     		ands	r0, r2
 542              	.LVL57:
 543 001a 00E0     		b	.L47
 544              	.LVL58:
 545              	.L48:
1463:Generated_Source\PSoC4/CapSense_Structure.c ****     uint32 result = 0Lu;
 546              		.loc 1 1463 0
 547 001c 0020     		movs	r0, #0
 548              	.LVL59:
 549              	.L47:
1468:Generated_Source\PSoC4/CapSense_Structure.c ****     }
1469:Generated_Source\PSoC4/CapSense_Structure.c ****     return result;
1470:Generated_Source\PSoC4/CapSense_Structure.c **** }
 550              		.loc 1 1470 0
 551              		@ sp needed
ARM GAS  C:\Users\Admin\AppData\Local\Temp\ccu4y80a.s 			page 37


 552 001e 7047     		bx	lr
 553              	.L50:
 554              		.align	2
 555              	.L49:
 556 0020 00000000 		.word	CapSense_dsRam
 557              		.cfi_endproc
 558              	.LFE6:
 559              		.size	CapSense_IsWidgetActive, .-CapSense_IsWidgetActive
 560              		.section	.text.CapSense_IsSensorActive,"ax",%progbits
 561              		.align	2
 562              		.global	CapSense_IsSensorActive
 563              		.code	16
 564              		.thumb_func
 565              		.type	CapSense_IsSensorActive, %function
 566              	CapSense_IsSensorActive:
 567              	.LFB7:
1471:Generated_Source\PSoC4/CapSense_Structure.c **** 
1472:Generated_Source\PSoC4/CapSense_Structure.c **** 
1473:Generated_Source\PSoC4/CapSense_Structure.c **** /*******************************************************************************
1474:Generated_Source\PSoC4/CapSense_Structure.c **** * Function Name: CapSense_IsSensorActive
1475:Generated_Source\PSoC4/CapSense_Structure.c **** ****************************************************************************//**
1476:Generated_Source\PSoC4/CapSense_Structure.c **** *
1477:Generated_Source\PSoC4/CapSense_Structure.c **** * \brief
1478:Generated_Source\PSoC4/CapSense_Structure.c **** *  Reports if the specified sensor in the widget detects a touch.
1479:Generated_Source\PSoC4/CapSense_Structure.c **** *
1480:Generated_Source\PSoC4/CapSense_Structure.c **** * \details
1481:Generated_Source\PSoC4/CapSense_Structure.c **** *  This function reports if the specified sensor in the widget has detected a
1482:Generated_Source\PSoC4/CapSense_Structure.c **** *  touch or not by extracting information from the wdgtStatus registers
1483:Generated_Source\PSoC4/CapSense_Structure.c **** *  (CapSense_WDGT_STATUS<X>_VALUE). This function does not process the
1484:Generated_Source\PSoC4/CapSense_Structure.c **** *  widget or sensor but extracts processed results from the \ref group_structures.
1485:Generated_Source\PSoC4/CapSense_Structure.c **** *
1486:Generated_Source\PSoC4/CapSense_Structure.c **** *  For proximity sensors, this function returns the proximity detection status. To
1487:Generated_Source\PSoC4/CapSense_Structure.c **** *  get the finger touch status of proximity sensors, use the
1488:Generated_Source\PSoC4/CapSense_Structure.c **** *  CapSense_IsProximitySensorActive() function.
1489:Generated_Source\PSoC4/CapSense_Structure.c **** *
1490:Generated_Source\PSoC4/CapSense_Structure.c **** * \param widgetId
1491:Generated_Source\PSoC4/CapSense_Structure.c **** *  Specifies the ID number of the widget.
1492:Generated_Source\PSoC4/CapSense_Structure.c **** *  A macro for the widget ID can be found in the CapSense Configuration header
1493:Generated_Source\PSoC4/CapSense_Structure.c **** *  file defined as CapSense_<WidgetName>_WDGT_ID.
1494:Generated_Source\PSoC4/CapSense_Structure.c **** 
1495:Generated_Source\PSoC4/CapSense_Structure.c **** * \param sensorId
1496:Generated_Source\PSoC4/CapSense_Structure.c **** *  Specifies the ID number of the sensor within the widget to get its touch
1497:Generated_Source\PSoC4/CapSense_Structure.c **** *  detection status.
1498:Generated_Source\PSoC4/CapSense_Structure.c **** *  A macro for the sensor ID within the specified widget can be found in the
1499:Generated_Source\PSoC4/CapSense_Structure.c **** *  CapSense Configuration header file defined as
1500:Generated_Source\PSoC4/CapSense_Structure.c **** *  CapSense_<WidgetName>_SNS<SensorNumber>_ID.
1501:Generated_Source\PSoC4/CapSense_Structure.c **** *
1502:Generated_Source\PSoC4/CapSense_Structure.c **** * \return
1503:Generated_Source\PSoC4/CapSense_Structure.c **** *  Returns the touch detection status of the specified sensor / widget:
1504:Generated_Source\PSoC4/CapSense_Structure.c **** *    - Zero if no touch is detected in the specified sensor / widget or a wrong
1505:Generated_Source\PSoC4/CapSense_Structure.c **** *      widget ID / sensor ID is specified.
1506:Generated_Source\PSoC4/CapSense_Structure.c **** *    - Non-zero if the specified sensor is active i.e. touch is detected. If the
1507:Generated_Source\PSoC4/CapSense_Structure.c **** *      specific sensor belongs to a proximity widget, the proximity detection
1508:Generated_Source\PSoC4/CapSense_Structure.c **** *      status is returned.
1509:Generated_Source\PSoC4/CapSense_Structure.c **** *
1510:Generated_Source\PSoC4/CapSense_Structure.c **** *******************************************************************************/
1511:Generated_Source\PSoC4/CapSense_Structure.c **** uint32 CapSense_IsSensorActive(uint32 widgetId, uint32 sensorId)
ARM GAS  C:\Users\Admin\AppData\Local\Temp\ccu4y80a.s 			page 38


1512:Generated_Source\PSoC4/CapSense_Structure.c **** {
 568              		.loc 1 1512 0
 569              		.cfi_startproc
 570              		@ args = 0, pretend = 0, frame = 0
 571              		@ frame_needed = 0, uses_anonymous_args = 0
 572              		@ link register save eliminated.
 573              	.LVL60:
1513:Generated_Source\PSoC4/CapSense_Structure.c ****     uint32 result = 0Lu;
1514:Generated_Source\PSoC4/CapSense_Structure.c **** 
1515:Generated_Source\PSoC4/CapSense_Structure.c ****     if ((widgetId < CapSense_TOTAL_WIDGETS) &&
 574              		.loc 1 1515 0
 575 0000 0E28     		cmp	r0, #14
 576 0002 0CD8     		bhi	.L53
1516:Generated_Source\PSoC4/CapSense_Structure.c ****         (sensorId < CapSense_GET_SENSOR_COUNT(widgetId)))
 577              		.loc 1 1516 0 discriminator 1
 578 0004 4301     		lsls	r3, r0, #5
 579 0006 084A     		ldr	r2, .L55
 580 0008 D318     		adds	r3, r2, r3
 581 000a 1B8D     		ldrh	r3, [r3, #40]
1515:Generated_Source\PSoC4/CapSense_Structure.c ****         (sensorId < CapSense_GET_SENSOR_COUNT(widgetId)))
 582              		.loc 1 1515 0 discriminator 1
 583 000c 8B42     		cmp	r3, r1
 584 000e 08D9     		bls	.L54
1517:Generated_Source\PSoC4/CapSense_Structure.c ****     {
1518:Generated_Source\PSoC4/CapSense_Structure.c ****         #if (CapSense_ENABLE == CapSense_PROXIMITY_WIDGET_EN)
1519:Generated_Source\PSoC4/CapSense_Structure.c ****             if (CapSense_WD_PROXIMITY_E ==
1520:Generated_Source\PSoC4/CapSense_Structure.c ****                 (CapSense_WD_TYPE_ENUM)CapSense_dsFlash.wdgtArray[widgetId].wdgtType)
1521:Generated_Source\PSoC4/CapSense_Structure.c ****             {
1522:Generated_Source\PSoC4/CapSense_Structure.c ****                 sensorId = CapSense_PROX_STS_OFFSET(sensorId);
1523:Generated_Source\PSoC4/CapSense_Structure.c ****             }
1524:Generated_Source\PSoC4/CapSense_Structure.c ****         #endif /* (CapSense_ENABLE != CapSense_PROXIMITY_WIDGET_EN) */
1525:Generated_Source\PSoC4/CapSense_Structure.c ****         result = CapSense_dsRam.snsStatus[widgetId] & (1Lu << sensorId);
 585              		.loc 1 1525 0
 586 0010 064B     		ldr	r3, .L55+4
 587 0012 1818     		adds	r0, r3, r0
 588              	.LVL61:
 589 0014 037E     		ldrb	r3, [r0, #24]
 590 0016 0120     		movs	r0, #1
 591 0018 8840     		lsls	r0, r0, r1
 592 001a 1840     		ands	r0, r3
 593              	.LVL62:
 594 001c 02E0     		b	.L52
 595              	.LVL63:
 596              	.L53:
1513:Generated_Source\PSoC4/CapSense_Structure.c **** 
 597              		.loc 1 1513 0
 598 001e 0020     		movs	r0, #0
 599              	.LVL64:
 600 0020 00E0     		b	.L52
 601              	.LVL65:
 602              	.L54:
 603 0022 0020     		movs	r0, #0
 604              	.LVL66:
 605              	.L52:
1526:Generated_Source\PSoC4/CapSense_Structure.c ****     }
1527:Generated_Source\PSoC4/CapSense_Structure.c **** 
1528:Generated_Source\PSoC4/CapSense_Structure.c ****     return result;
ARM GAS  C:\Users\Admin\AppData\Local\Temp\ccu4y80a.s 			page 39


1529:Generated_Source\PSoC4/CapSense_Structure.c **** }
 606              		.loc 1 1529 0
 607              		@ sp needed
 608 0024 7047     		bx	lr
 609              	.L56:
 610 0026 C046     		.align	2
 611              	.L55:
 612 0028 00000000 		.word	.LANCHOR0
 613 002c 00000000 		.word	CapSense_dsRam
 614              		.cfi_endproc
 615              	.LFE7:
 616              		.size	CapSense_IsSensorActive, .-CapSense_IsSensorActive
 617              		.global	CapSense_ramIdacInit
 618              		.global	CapSense_ramWidgetInit
 619              		.global	CapSense_ioList
 620              		.global	CapSense_dsFlash
 621              		.comm	CapSense_dsRam,472,4
 622              		.section	.rodata
 623              		.align	2
 624              		.set	.LANCHOR0,. + 0
 625              		.set	.LANCHOR1,. + 384
 626              		.type	CapSense_ramIdacInit, %object
 627              		.size	CapSense_ramIdacInit, 15
 628              	CapSense_ramIdacInit:
 629 0000 20       		.byte	32
 630 0001 20       		.byte	32
 631 0002 20       		.byte	32
 632 0003 20       		.byte	32
 633 0004 20       		.byte	32
 634 0005 20       		.byte	32
 635 0006 20       		.byte	32
 636 0007 20       		.byte	32
 637 0008 20       		.byte	32
 638 0009 20       		.byte	32
 639 000a 20       		.byte	32
 640 000b 20       		.byte	32
 641 000c 20       		.byte	32
 642 000d 20       		.byte	32
 643 000e 20       		.byte	32
 644 000f 00       		.space	1
 645              		.type	CapSense_dsFlash, %object
 646              		.size	CapSense_dsFlash, 480
 647              	CapSense_dsFlash:
 648 0010 00000000 		.word	CapSense_ioList
 649 0014 2C000000 		.word	CapSense_dsRam+44
 650 0018 3A010000 		.word	CapSense_dsRam+314
 651 001c 00000000 		.word	0
 652 0020 EC000000 		.word	CapSense_debounceButton0
 653 0024 01280000 		.word	10241
 654 0028 0100     		.short	1
 655 002a 01       		.byte	1
 656 002b 01       		.byte	1
 657 002c A8000000 		.word	CapSense_noiseEnvlpButton0
 658 0030 1C000000 		.word	CapSense_ioList+28
 659 0034 3E000000 		.word	CapSense_dsRam+62
 660 0038 44010000 		.word	CapSense_dsRam+324
 661 003c 00000000 		.word	0
ARM GAS  C:\Users\Admin\AppData\Local\Temp\ccu4y80a.s 			page 40


 662 0040 E8000000 		.word	CapSense_debounceButton1
 663 0044 01280000 		.word	10241
 664 0048 0100     		.short	1
 665 004a 01       		.byte	1
 666 004b 01       		.byte	1
 667 004c 9C000000 		.word	CapSense_noiseEnvlpButton1
 668 0050 38000000 		.word	CapSense_ioList+56
 669 0054 50000000 		.word	CapSense_dsRam+80
 670 0058 4E010000 		.word	CapSense_dsRam+334
 671 005c 00000000 		.word	0
 672 0060 E4000000 		.word	CapSense_debounceButton2
 673 0064 01280000 		.word	10241
 674 0068 0100     		.short	1
 675 006a 01       		.byte	1
 676 006b 01       		.byte	1
 677 006c 90000000 		.word	CapSense_noiseEnvlpButton2
 678 0070 54000000 		.word	CapSense_ioList+84
 679 0074 62000000 		.word	CapSense_dsRam+98
 680 0078 58010000 		.word	CapSense_dsRam+344
 681 007c 00000000 		.word	0
 682 0080 E0000000 		.word	CapSense_debounceButton3
 683 0084 01280000 		.word	10241
 684 0088 0100     		.short	1
 685 008a 01       		.byte	1
 686 008b 01       		.byte	1
 687 008c 84000000 		.word	CapSense_noiseEnvlpButton3
 688 0090 70000000 		.word	CapSense_ioList+112
 689 0094 74000000 		.word	CapSense_dsRam+116
 690 0098 62010000 		.word	CapSense_dsRam+354
 691 009c 00000000 		.word	0
 692 00a0 DC000000 		.word	CapSense_debounceButton4
 693 00a4 01280000 		.word	10241
 694 00a8 0100     		.short	1
 695 00aa 01       		.byte	1
 696 00ab 01       		.byte	1
 697 00ac 78000000 		.word	CapSense_noiseEnvlpButton4
 698 00b0 8C000000 		.word	CapSense_ioList+140
 699 00b4 86000000 		.word	CapSense_dsRam+134
 700 00b8 6C010000 		.word	CapSense_dsRam+364
 701 00bc 00000000 		.word	0
 702 00c0 D8000000 		.word	CapSense_debounceButton5
 703 00c4 01280000 		.word	10241
 704 00c8 0100     		.short	1
 705 00ca 01       		.byte	1
 706 00cb 01       		.byte	1
 707 00cc 6C000000 		.word	CapSense_noiseEnvlpButton5
 708 00d0 A8000000 		.word	CapSense_ioList+168
 709 00d4 98000000 		.word	CapSense_dsRam+152
 710 00d8 76010000 		.word	CapSense_dsRam+374
 711 00dc 00000000 		.word	0
 712 00e0 D4000000 		.word	CapSense_debounceButton6
 713 00e4 01280000 		.word	10241
 714 00e8 0100     		.short	1
 715 00ea 01       		.byte	1
 716 00eb 01       		.byte	1
 717 00ec 60000000 		.word	CapSense_noiseEnvlpButton6
 718 00f0 C4000000 		.word	CapSense_ioList+196
ARM GAS  C:\Users\Admin\AppData\Local\Temp\ccu4y80a.s 			page 41


 719 00f4 AA000000 		.word	CapSense_dsRam+170
 720 00f8 80010000 		.word	CapSense_dsRam+384
 721 00fc 00000000 		.word	0
 722 0100 D0000000 		.word	CapSense_debounceButton7
 723 0104 01280000 		.word	10241
 724 0108 0100     		.short	1
 725 010a 01       		.byte	1
 726 010b 01       		.byte	1
 727 010c 54000000 		.word	CapSense_noiseEnvlpButton7
 728 0110 E0000000 		.word	CapSense_ioList+224
 729 0114 BC000000 		.word	CapSense_dsRam+188
 730 0118 8A010000 		.word	CapSense_dsRam+394
 731 011c 00000000 		.word	0
 732 0120 CC000000 		.word	CapSense_debounceButton8
 733 0124 01280000 		.word	10241
 734 0128 0100     		.short	1
 735 012a 01       		.byte	1
 736 012b 01       		.byte	1
 737 012c 48000000 		.word	CapSense_noiseEnvlpButton8
 738 0130 FC000000 		.word	CapSense_ioList+252
 739 0134 CE000000 		.word	CapSense_dsRam+206
 740 0138 94010000 		.word	CapSense_dsRam+404
 741 013c 00000000 		.word	0
 742 0140 C8000000 		.word	CapSense_debounceButton9
 743 0144 01280000 		.word	10241
 744 0148 0100     		.short	1
 745 014a 01       		.byte	1
 746 014b 01       		.byte	1
 747 014c 3C000000 		.word	CapSense_noiseEnvlpButton9
 748 0150 18010000 		.word	CapSense_ioList+280
 749 0154 E0000000 		.word	CapSense_dsRam+224
 750 0158 9E010000 		.word	CapSense_dsRam+414
 751 015c 00000000 		.word	0
 752 0160 C4000000 		.word	CapSense_debounceButton10
 753 0164 01280000 		.word	10241
 754 0168 0100     		.short	1
 755 016a 01       		.byte	1
 756 016b 01       		.byte	1
 757 016c 30000000 		.word	CapSense_noiseEnvlpButton10
 758 0170 34010000 		.word	CapSense_ioList+308
 759 0174 F2000000 		.word	CapSense_dsRam+242
 760 0178 A8010000 		.word	CapSense_dsRam+424
 761 017c 00000000 		.word	0
 762 0180 C0000000 		.word	CapSense_debounceButton11
 763 0184 01280000 		.word	10241
 764 0188 0100     		.short	1
 765 018a 01       		.byte	1
 766 018b 01       		.byte	1
 767 018c 24000000 		.word	CapSense_noiseEnvlpButton11
 768 0190 50010000 		.word	CapSense_ioList+336
 769 0194 04010000 		.word	CapSense_dsRam+260
 770 0198 B2010000 		.word	CapSense_dsRam+434
 771 019c 00000000 		.word	0
 772 01a0 BC000000 		.word	CapSense_debounceButton12
 773 01a4 01280000 		.word	10241
 774 01a8 0100     		.short	1
 775 01aa 01       		.byte	1
ARM GAS  C:\Users\Admin\AppData\Local\Temp\ccu4y80a.s 			page 42


 776 01ab 01       		.byte	1
 777 01ac 18000000 		.word	CapSense_noiseEnvlpButton12
 778 01b0 6C010000 		.word	CapSense_ioList+364
 779 01b4 16010000 		.word	CapSense_dsRam+278
 780 01b8 BC010000 		.word	CapSense_dsRam+444
 781 01bc 00000000 		.word	0
 782 01c0 B8000000 		.word	CapSense_debounceButton13
 783 01c4 01280000 		.word	10241
 784 01c8 0100     		.short	1
 785 01ca 01       		.byte	1
 786 01cb 01       		.byte	1
 787 01cc 0C000000 		.word	CapSense_noiseEnvlpButton13
 788 01d0 88010000 		.word	CapSense_ioList+392
 789 01d4 28010000 		.word	CapSense_dsRam+296
 790 01d8 C6010000 		.word	CapSense_dsRam+454
 791 01dc 00000000 		.word	0
 792 01e0 B4000000 		.word	CapSense_debounceButton14
 793 01e4 01280000 		.word	10241
 794 01e8 0100     		.short	1
 795 01ea 01       		.byte	1
 796 01eb 01       		.byte	1
 797 01ec 00000000 		.word	CapSense_noiseEnvlpButton14
 798              		.type	CapSense_ramWidgetInit, %object
 799              		.size	CapSense_ramWidgetInit, 270
 800              	CapSense_ramWidgetInit:
 801 01f0 0C00     		.short	12
 802 01f2 6400     		.short	100
 803 01f4 28       		.byte	40
 804 01f5 28       		.byte	40
 805 01f6 0A       		.byte	10
 806 01f7 03       		.byte	3
 807 01f8 1E       		.byte	30
 808 01f9 20       		.byte	32
 809 01fa 0400     		.short	4
 810 01fc 00       		.byte	0
 811 01fd 00       		.space	1
 812 01fe A000     		.short	160
 813 0200 0000     		.short	0
 814 0202 0C00     		.short	12
 815 0204 6400     		.short	100
 816 0206 28       		.byte	40
 817 0207 28       		.byte	40
 818 0208 0A       		.byte	10
 819 0209 03       		.byte	3
 820 020a 1E       		.byte	30
 821 020b 20       		.byte	32
 822 020c 0400     		.short	4
 823 020e 00       		.byte	0
 824 020f 00       		.space	1
 825 0210 A000     		.short	160
 826 0212 0000     		.short	0
 827 0214 0C00     		.short	12
 828 0216 6400     		.short	100
 829 0218 28       		.byte	40
 830 0219 28       		.byte	40
 831 021a 0A       		.byte	10
 832 021b 03       		.byte	3
ARM GAS  C:\Users\Admin\AppData\Local\Temp\ccu4y80a.s 			page 43


 833 021c 1E       		.byte	30
 834 021d 20       		.byte	32
 835 021e 0400     		.short	4
 836 0220 00       		.byte	0
 837 0221 00       		.space	1
 838 0222 A000     		.short	160
 839 0224 0000     		.short	0
 840 0226 0C00     		.short	12
 841 0228 6400     		.short	100
 842 022a 28       		.byte	40
 843 022b 28       		.byte	40
 844 022c 0A       		.byte	10
 845 022d 03       		.byte	3
 846 022e 1E       		.byte	30
 847 022f 20       		.byte	32
 848 0230 0400     		.short	4
 849 0232 00       		.byte	0
 850 0233 00       		.space	1
 851 0234 A000     		.short	160
 852 0236 0000     		.short	0
 853 0238 0C00     		.short	12
 854 023a 6400     		.short	100
 855 023c 28       		.byte	40
 856 023d 28       		.byte	40
 857 023e 0A       		.byte	10
 858 023f 03       		.byte	3
 859 0240 1E       		.byte	30
 860 0241 20       		.byte	32
 861 0242 0400     		.short	4
 862 0244 00       		.byte	0
 863 0245 00       		.space	1
 864 0246 A000     		.short	160
 865 0248 0000     		.short	0
 866 024a 0C00     		.short	12
 867 024c 6400     		.short	100
 868 024e 28       		.byte	40
 869 024f 28       		.byte	40
 870 0250 0A       		.byte	10
 871 0251 03       		.byte	3
 872 0252 1E       		.byte	30
 873 0253 20       		.byte	32
 874 0254 0400     		.short	4
 875 0256 00       		.byte	0
 876 0257 00       		.space	1
 877 0258 A000     		.short	160
 878 025a 0000     		.short	0
 879 025c 0C00     		.short	12
 880 025e 6400     		.short	100
 881 0260 28       		.byte	40
 882 0261 28       		.byte	40
 883 0262 0A       		.byte	10
 884 0263 03       		.byte	3
 885 0264 1E       		.byte	30
 886 0265 20       		.byte	32
 887 0266 0400     		.short	4
 888 0268 00       		.byte	0
 889 0269 00       		.space	1
ARM GAS  C:\Users\Admin\AppData\Local\Temp\ccu4y80a.s 			page 44


 890 026a A000     		.short	160
 891 026c 0000     		.short	0
 892 026e 0C00     		.short	12
 893 0270 6400     		.short	100
 894 0272 28       		.byte	40
 895 0273 28       		.byte	40
 896 0274 0A       		.byte	10
 897 0275 03       		.byte	3
 898 0276 1E       		.byte	30
 899 0277 20       		.byte	32
 900 0278 0400     		.short	4
 901 027a 00       		.byte	0
 902 027b 00       		.space	1
 903 027c A000     		.short	160
 904 027e 0000     		.short	0
 905 0280 0C00     		.short	12
 906 0282 6400     		.short	100
 907 0284 28       		.byte	40
 908 0285 28       		.byte	40
 909 0286 0A       		.byte	10
 910 0287 03       		.byte	3
 911 0288 1E       		.byte	30
 912 0289 20       		.byte	32
 913 028a 0400     		.short	4
 914 028c 00       		.byte	0
 915 028d 00       		.space	1
 916 028e A000     		.short	160
 917 0290 0000     		.short	0
 918 0292 0C00     		.short	12
 919 0294 6400     		.short	100
 920 0296 28       		.byte	40
 921 0297 28       		.byte	40
 922 0298 0A       		.byte	10
 923 0299 03       		.byte	3
 924 029a 1E       		.byte	30
 925 029b 20       		.byte	32
 926 029c 0400     		.short	4
 927 029e 00       		.byte	0
 928 029f 00       		.space	1
 929 02a0 A000     		.short	160
 930 02a2 0000     		.short	0
 931 02a4 0C00     		.short	12
 932 02a6 6400     		.short	100
 933 02a8 28       		.byte	40
 934 02a9 28       		.byte	40
 935 02aa 0A       		.byte	10
 936 02ab 03       		.byte	3
 937 02ac 1E       		.byte	30
 938 02ad 20       		.byte	32
 939 02ae 0400     		.short	4
 940 02b0 00       		.byte	0
 941 02b1 00       		.space	1
 942 02b2 A000     		.short	160
 943 02b4 0000     		.short	0
 944 02b6 0C00     		.short	12
 945 02b8 6400     		.short	100
 946 02ba 28       		.byte	40
ARM GAS  C:\Users\Admin\AppData\Local\Temp\ccu4y80a.s 			page 45


 947 02bb 28       		.byte	40
 948 02bc 0A       		.byte	10
 949 02bd 03       		.byte	3
 950 02be 1E       		.byte	30
 951 02bf 20       		.byte	32
 952 02c0 0400     		.short	4
 953 02c2 00       		.byte	0
 954 02c3 00       		.space	1
 955 02c4 A000     		.short	160
 956 02c6 0000     		.short	0
 957 02c8 0C00     		.short	12
 958 02ca 6400     		.short	100
 959 02cc 28       		.byte	40
 960 02cd 28       		.byte	40
 961 02ce 0A       		.byte	10
 962 02cf 03       		.byte	3
 963 02d0 1E       		.byte	30
 964 02d1 20       		.byte	32
 965 02d2 0400     		.short	4
 966 02d4 00       		.byte	0
 967 02d5 00       		.space	1
 968 02d6 A000     		.short	160
 969 02d8 0000     		.short	0
 970 02da 0C00     		.short	12
 971 02dc 6400     		.short	100
 972 02de 28       		.byte	40
 973 02df 28       		.byte	40
 974 02e0 0A       		.byte	10
 975 02e1 03       		.byte	3
 976 02e2 1E       		.byte	30
 977 02e3 20       		.byte	32
 978 02e4 0400     		.short	4
 979 02e6 00       		.byte	0
 980 02e7 00       		.space	1
 981 02e8 A000     		.short	160
 982 02ea 0000     		.short	0
 983 02ec 0C00     		.short	12
 984 02ee 6400     		.short	100
 985 02f0 28       		.byte	40
 986 02f1 28       		.byte	40
 987 02f2 0A       		.byte	10
 988 02f3 03       		.byte	3
 989 02f4 1E       		.byte	30
 990 02f5 20       		.byte	32
 991 02f6 0400     		.short	4
 992 02f8 00       		.byte	0
 993 02f9 00       		.space	1
 994 02fa A000     		.short	160
 995 02fc 0000     		.short	0
 996 02fe 0000     		.space	2
 997              		.type	CapSense_ioList, %object
 998              		.size	CapSense_ioList, 420
 999              	CapSense_ioList:
 1000 0300 00010240 		.word	1073873152
 1001 0304 08010440 		.word	1074004232
 1002 0308 00010440 		.word	1074004224
 1003 030c 04010440 		.word	1074004228
ARM GAS  C:\Users\Admin\AppData\Local\Temp\ccu4y80a.s 			page 46


 1004 0310 000F0000 		.word	3840
 1005 0314 04000000 		.word	4
 1006 0318 08       		.byte	8
 1007 0319 02       		.byte	2
 1008 031a 06       		.byte	6
 1009 031b 00       		.space	1
 1010 031c 00010240 		.word	1073873152
 1011 0320 08010440 		.word	1074004232
 1012 0324 00010440 		.word	1074004224
 1013 0328 04010440 		.word	1074004228
 1014 032c 00F00000 		.word	61440
 1015 0330 08000000 		.word	8
 1016 0334 0C       		.byte	12
 1017 0335 03       		.byte	3
 1018 0336 09       		.byte	9
 1019 0337 00       		.space	1
 1020 0338 00010240 		.word	1073873152
 1021 033c 08010440 		.word	1074004232
 1022 0340 00010440 		.word	1074004224
 1023 0344 04010440 		.word	1074004228
 1024 0348 00000F00 		.word	983040
 1025 034c 10000000 		.word	16
 1026 0350 10       		.byte	16
 1027 0351 04       		.byte	4
 1028 0352 0C       		.byte	12
 1029 0353 00       		.space	1
 1030 0354 00010240 		.word	1073873152
 1031 0358 08010440 		.word	1074004232
 1032 035c 00010440 		.word	1074004224
 1033 0360 04010440 		.word	1074004228
 1034 0364 0000F000 		.word	15728640
 1035 0368 20000000 		.word	32
 1036 036c 14       		.byte	20
 1037 036d 05       		.byte	5
 1038 036e 0F       		.byte	15
 1039 036f 00       		.space	1
 1040 0370 00010240 		.word	1073873152
 1041 0374 08010440 		.word	1074004232
 1042 0378 00010440 		.word	1074004224
 1043 037c 04010440 		.word	1074004228
 1044 0380 0000000F 		.word	251658240
 1045 0384 40000000 		.word	64
 1046 0388 18       		.byte	24
 1047 0389 06       		.byte	6
 1048 038a 12       		.byte	18
 1049 038b 00       		.space	1
 1050 038c 00000240 		.word	1073872896
 1051 0390 08000440 		.word	1074003976
 1052 0394 00000440 		.word	1074003968
 1053 0398 04000440 		.word	1074003972
 1054 039c 0F000000 		.word	15
 1055 03a0 01000000 		.word	1
 1056 03a4 00       		.byte	0
 1057 03a5 00       		.byte	0
 1058 03a6 00       		.byte	0
 1059 03a7 00       		.space	1
 1060 03a8 00000240 		.word	1073872896
ARM GAS  C:\Users\Admin\AppData\Local\Temp\ccu4y80a.s 			page 47


 1061 03ac 08000440 		.word	1074003976
 1062 03b0 00000440 		.word	1074003968
 1063 03b4 04000440 		.word	1074003972
 1064 03b8 F0000000 		.word	240
 1065 03bc 02000000 		.word	2
 1066 03c0 04       		.byte	4
 1067 03c1 01       		.byte	1
 1068 03c2 03       		.byte	3
 1069 03c3 00       		.space	1
 1070 03c4 00000240 		.word	1073872896
 1071 03c8 08000440 		.word	1074003976
 1072 03cc 00000440 		.word	1074003968
 1073 03d0 04000440 		.word	1074003972
 1074 03d4 000F0000 		.word	3840
 1075 03d8 04000000 		.word	4
 1076 03dc 08       		.byte	8
 1077 03dd 02       		.byte	2
 1078 03de 06       		.byte	6
 1079 03df 00       		.space	1
 1080 03e0 00000240 		.word	1073872896
 1081 03e4 08000440 		.word	1074003976
 1082 03e8 00000440 		.word	1074003968
 1083 03ec 04000440 		.word	1074003972
 1084 03f0 00F00000 		.word	61440
 1085 03f4 08000000 		.word	8
 1086 03f8 0C       		.byte	12
 1087 03f9 03       		.byte	3
 1088 03fa 09       		.byte	9
 1089 03fb 00       		.space	1
 1090 03fc 00000240 		.word	1073872896
 1091 0400 08000440 		.word	1074003976
 1092 0404 00000440 		.word	1074003968
 1093 0408 04000440 		.word	1074003972
 1094 040c 00000F00 		.word	983040
 1095 0410 10000000 		.word	16
 1096 0414 10       		.byte	16
 1097 0415 04       		.byte	4
 1098 0416 0C       		.byte	12
 1099 0417 00       		.space	1
 1100 0418 00000240 		.word	1073872896
 1101 041c 08000440 		.word	1074003976
 1102 0420 00000440 		.word	1074003968
 1103 0424 04000440 		.word	1074003972
 1104 0428 0000F000 		.word	15728640
 1105 042c 20000000 		.word	32
 1106 0430 14       		.byte	20
 1107 0431 05       		.byte	5
 1108 0432 0F       		.byte	15
 1109 0433 00       		.space	1
 1110 0434 00000240 		.word	1073872896
 1111 0438 08000440 		.word	1074003976
 1112 043c 00000440 		.word	1074003968
 1113 0440 04000440 		.word	1074003972
 1114 0444 0000000F 		.word	251658240
 1115 0448 40000000 		.word	64
 1116 044c 18       		.byte	24
 1117 044d 06       		.byte	6
ARM GAS  C:\Users\Admin\AppData\Local\Temp\ccu4y80a.s 			page 48


 1118 044e 12       		.byte	18
 1119 044f 00       		.space	1
 1120 0450 00000240 		.word	1073872896
 1121 0454 08000440 		.word	1074003976
 1122 0458 00000440 		.word	1074003968
 1123 045c 04000440 		.word	1074003972
 1124 0460 000000F0 		.word	-268435456
 1125 0464 80000000 		.word	128
 1126 0468 1C       		.byte	28
 1127 0469 07       		.byte	7
 1128 046a 15       		.byte	21
 1129 046b 00       		.space	1
 1130 046c 00010240 		.word	1073873152
 1131 0470 08010440 		.word	1074004232
 1132 0474 00010440 		.word	1074004224
 1133 0478 04010440 		.word	1074004228
 1134 047c 000000F0 		.word	-268435456
 1135 0480 80000000 		.word	128
 1136 0484 1C       		.byte	28
 1137 0485 07       		.byte	7
 1138 0486 15       		.byte	21
 1139 0487 00       		.space	1
 1140 0488 00030240 		.word	1073873664
 1141 048c 08030440 		.word	1074004744
 1142 0490 00030440 		.word	1074004736
 1143 0494 04030440 		.word	1074004740
 1144 0498 000000F0 		.word	-268435456
 1145 049c 80000000 		.word	128
 1146 04a0 1C       		.byte	28
 1147 04a1 07       		.byte	7
 1148 04a2 15       		.byte	21
 1149 04a3 00       		.space	1
 1150              		.bss
 1151              		.align	2
 1152              		.type	CapSense_noiseEnvlpButton14, %object
 1153              		.size	CapSense_noiseEnvlpButton14, 12
 1154              	CapSense_noiseEnvlpButton14:
 1155 0000 00000000 		.space	12
 1155      00000000 
 1155      00000000 
 1156              		.type	CapSense_noiseEnvlpButton13, %object
 1157              		.size	CapSense_noiseEnvlpButton13, 12
 1158              	CapSense_noiseEnvlpButton13:
 1159 000c 00000000 		.space	12
 1159      00000000 
 1159      00000000 
 1160              		.type	CapSense_noiseEnvlpButton12, %object
 1161              		.size	CapSense_noiseEnvlpButton12, 12
 1162              	CapSense_noiseEnvlpButton12:
 1163 0018 00000000 		.space	12
 1163      00000000 
 1163      00000000 
 1164              		.type	CapSense_noiseEnvlpButton11, %object
 1165              		.size	CapSense_noiseEnvlpButton11, 12
 1166              	CapSense_noiseEnvlpButton11:
 1167 0024 00000000 		.space	12
 1167      00000000 
ARM GAS  C:\Users\Admin\AppData\Local\Temp\ccu4y80a.s 			page 49


 1167      00000000 
 1168              		.type	CapSense_noiseEnvlpButton10, %object
 1169              		.size	CapSense_noiseEnvlpButton10, 12
 1170              	CapSense_noiseEnvlpButton10:
 1171 0030 00000000 		.space	12
 1171      00000000 
 1171      00000000 
 1172              		.type	CapSense_noiseEnvlpButton9, %object
 1173              		.size	CapSense_noiseEnvlpButton9, 12
 1174              	CapSense_noiseEnvlpButton9:
 1175 003c 00000000 		.space	12
 1175      00000000 
 1175      00000000 
 1176              		.type	CapSense_noiseEnvlpButton8, %object
 1177              		.size	CapSense_noiseEnvlpButton8, 12
 1178              	CapSense_noiseEnvlpButton8:
 1179 0048 00000000 		.space	12
 1179      00000000 
 1179      00000000 
 1180              		.type	CapSense_noiseEnvlpButton7, %object
 1181              		.size	CapSense_noiseEnvlpButton7, 12
 1182              	CapSense_noiseEnvlpButton7:
 1183 0054 00000000 		.space	12
 1183      00000000 
 1183      00000000 
 1184              		.type	CapSense_noiseEnvlpButton6, %object
 1185              		.size	CapSense_noiseEnvlpButton6, 12
 1186              	CapSense_noiseEnvlpButton6:
 1187 0060 00000000 		.space	12
 1187      00000000 
 1187      00000000 
 1188              		.type	CapSense_noiseEnvlpButton5, %object
 1189              		.size	CapSense_noiseEnvlpButton5, 12
 1190              	CapSense_noiseEnvlpButton5:
 1191 006c 00000000 		.space	12
 1191      00000000 
 1191      00000000 
 1192              		.type	CapSense_noiseEnvlpButton4, %object
 1193              		.size	CapSense_noiseEnvlpButton4, 12
 1194              	CapSense_noiseEnvlpButton4:
 1195 0078 00000000 		.space	12
 1195      00000000 
 1195      00000000 
 1196              		.type	CapSense_noiseEnvlpButton3, %object
 1197              		.size	CapSense_noiseEnvlpButton3, 12
 1198              	CapSense_noiseEnvlpButton3:
 1199 0084 00000000 		.space	12
 1199      00000000 
 1199      00000000 
 1200              		.type	CapSense_noiseEnvlpButton2, %object
 1201              		.size	CapSense_noiseEnvlpButton2, 12
 1202              	CapSense_noiseEnvlpButton2:
 1203 0090 00000000 		.space	12
 1203      00000000 
 1203      00000000 
 1204              		.type	CapSense_noiseEnvlpButton1, %object
 1205              		.size	CapSense_noiseEnvlpButton1, 12
ARM GAS  C:\Users\Admin\AppData\Local\Temp\ccu4y80a.s 			page 50


 1206              	CapSense_noiseEnvlpButton1:
 1207 009c 00000000 		.space	12
 1207      00000000 
 1207      00000000 
 1208              		.type	CapSense_noiseEnvlpButton0, %object
 1209              		.size	CapSense_noiseEnvlpButton0, 12
 1210              	CapSense_noiseEnvlpButton0:
 1211 00a8 00000000 		.space	12
 1211      00000000 
 1211      00000000 
 1212              		.type	CapSense_debounceButton14, %object
 1213              		.size	CapSense_debounceButton14, 1
 1214              	CapSense_debounceButton14:
 1215 00b4 00       		.space	1
 1216 00b5 000000   		.space	3
 1217              		.type	CapSense_debounceButton13, %object
 1218              		.size	CapSense_debounceButton13, 1
 1219              	CapSense_debounceButton13:
 1220 00b8 00       		.space	1
 1221 00b9 000000   		.space	3
 1222              		.type	CapSense_debounceButton12, %object
 1223              		.size	CapSense_debounceButton12, 1
 1224              	CapSense_debounceButton12:
 1225 00bc 00       		.space	1
 1226 00bd 000000   		.space	3
 1227              		.type	CapSense_debounceButton11, %object
 1228              		.size	CapSense_debounceButton11, 1
 1229              	CapSense_debounceButton11:
 1230 00c0 00       		.space	1
 1231 00c1 000000   		.space	3
 1232              		.type	CapSense_debounceButton10, %object
 1233              		.size	CapSense_debounceButton10, 1
 1234              	CapSense_debounceButton10:
 1235 00c4 00       		.space	1
 1236 00c5 000000   		.space	3
 1237              		.type	CapSense_debounceButton9, %object
 1238              		.size	CapSense_debounceButton9, 1
 1239              	CapSense_debounceButton9:
 1240 00c8 00       		.space	1
 1241 00c9 000000   		.space	3
 1242              		.type	CapSense_debounceButton8, %object
 1243              		.size	CapSense_debounceButton8, 1
 1244              	CapSense_debounceButton8:
 1245 00cc 00       		.space	1
 1246 00cd 000000   		.space	3
 1247              		.type	CapSense_debounceButton7, %object
 1248              		.size	CapSense_debounceButton7, 1
 1249              	CapSense_debounceButton7:
 1250 00d0 00       		.space	1
 1251 00d1 000000   		.space	3
 1252              		.type	CapSense_debounceButton6, %object
 1253              		.size	CapSense_debounceButton6, 1
 1254              	CapSense_debounceButton6:
 1255 00d4 00       		.space	1
 1256 00d5 000000   		.space	3
 1257              		.type	CapSense_debounceButton5, %object
 1258              		.size	CapSense_debounceButton5, 1
ARM GAS  C:\Users\Admin\AppData\Local\Temp\ccu4y80a.s 			page 51


 1259              	CapSense_debounceButton5:
 1260 00d8 00       		.space	1
 1261 00d9 000000   		.space	3
 1262              		.type	CapSense_debounceButton4, %object
 1263              		.size	CapSense_debounceButton4, 1
 1264              	CapSense_debounceButton4:
 1265 00dc 00       		.space	1
 1266 00dd 000000   		.space	3
 1267              		.type	CapSense_debounceButton3, %object
 1268              		.size	CapSense_debounceButton3, 1
 1269              	CapSense_debounceButton3:
 1270 00e0 00       		.space	1
 1271 00e1 000000   		.space	3
 1272              		.type	CapSense_debounceButton2, %object
 1273              		.size	CapSense_debounceButton2, 1
 1274              	CapSense_debounceButton2:
 1275 00e4 00       		.space	1
 1276 00e5 000000   		.space	3
 1277              		.type	CapSense_debounceButton1, %object
 1278              		.size	CapSense_debounceButton1, 1
 1279              	CapSense_debounceButton1:
 1280 00e8 00       		.space	1
 1281 00e9 000000   		.space	3
 1282              		.type	CapSense_debounceButton0, %object
 1283              		.size	CapSense_debounceButton0, 1
 1284              	CapSense_debounceButton0:
 1285 00ec 00       		.space	1
 1286              		.text
 1287              	.Letext0:
 1288              		.file 2 "Generated_Source\\PSoC4/cytypes.h"
 1289              		.file 3 "Generated_Source\\PSoC4\\CapSense_Configuration.h"
 1290              		.file 4 "Generated_Source\\PSoC4\\CapSense_SmartSense_LL.h"
 1291              		.file 5 "Generated_Source\\PSoC4\\CapSense_Structure.h"
 1292              		.file 6 "Generated_Source\\PSoC4\\CyLib.h"