ARM GAS  C:\Users\User\AppData\Local\Temp\ccbkT9VH.s 			page 1


   1              		.syntax unified
   2              		.cpu cortex-m0
   3              		.fpu softvfp
   4              		.eabi_attribute 20, 1
   5              		.eabi_attribute 21, 1
   6              		.eabi_attribute 23, 3
   7              		.eabi_attribute 24, 1
   8              		.eabi_attribute 25, 1
   9              		.eabi_attribute 26, 1
  10              		.eabi_attribute 30, 1
  11              		.eabi_attribute 34, 0
  12              		.eabi_attribute 18, 4
  13              		.thumb
  14              		.syntax unified
  15              		.file	"main.c"
  16              		.text
  17              	.Ltext0:
  18              		.cfi_sections	.debug_frame
  19              		.section	.text.move,"ax",%progbits
  20              		.align	2
  21              		.global	move
  22              		.code	16
  23              		.thumb_func
  24              		.type	move, %function
  25              	move:
  26              	.LFB35:
  27              		.file 1 "main.c"
   1:main.c        **** /* ========================================
   2:main.c        ****  *
   3:main.c        ****  * Copyright YOUR COMPANY, THE YEAR
   4:main.c        ****  * All Rights Reserved
   5:main.c        ****  * UNPUBLISHED, LICENSED SOFTWARE.
   6:main.c        ****  *
   7:main.c        ****  * CONFIDENTIAL AND PROPRIETARY INFORMATION
   8:main.c        ****  * WHICH IS THE PROPERTY OF your company.
   9:main.c        ****  *
  10:main.c        ****  * ========================================
  11:main.c        **** */
  12:main.c        **** #include "project.h"
  13:main.c        **** #include "string.h"
  14:main.c        **** #include "stepper.h"
  15:main.c        **** 
  16:main.c        **** 
  17:main.c        **** void move(uint8 motor, uint8 dir, uint16 steps)
  18:main.c        **** {
  28              		.loc 1 18 0
  29              		.cfi_startproc
  30              		@ args = 0, pretend = 0, frame = 0
  31              		@ frame_needed = 0, uses_anonymous_args = 0
  32              	.LVL0:
  33 0000 70B5     		push	{r4, r5, r6, lr}
  34              		.cfi_def_cfa_offset 16
  35              		.cfi_offset 4, -16
  36              		.cfi_offset 5, -12
  37              		.cfi_offset 6, -8
  38              		.cfi_offset 14, -4
  39 0002 0600     		movs	r6, r0
ARM GAS  C:\Users\User\AppData\Local\Temp\ccbkT9VH.s 			page 2


  40 0004 0D00     		movs	r5, r1
  41 0006 1400     		movs	r4, r2
  19:main.c        ****     Step_Counter_Enable();
  42              		.loc 1 19 0
  43 0008 FFF7FEFF 		bl	Step_Counter_Enable
  44              	.LVL1:
  20:main.c        ****        Motor_Control_Reg_Write(motor);
  45              		.loc 1 20 0
  46 000c 3000     		movs	r0, r6
  47 000e FFF7FEFF 		bl	Motor_Control_Reg_Write
  48              	.LVL2:
  21:main.c        ****        Pin_DIR_X_Write(dir);
  49              		.loc 1 21 0
  50 0012 2800     		movs	r0, r5
  51 0014 FFF7FEFF 		bl	Pin_DIR_X_Write
  52              	.LVL3:
  22:main.c        ****        Pin_DIR_Y_Write(dir);
  53              		.loc 1 22 0
  54 0018 2800     		movs	r0, r5
  55 001a FFF7FEFF 		bl	Pin_DIR_Y_Write
  56              	.LVL4:
  23:main.c        ****        Counter_Motor_Steps_WriteCounter(0); 
  57              		.loc 1 23 0
  58 001e 0020     		movs	r0, #0
  59 0020 FFF7FEFF 		bl	Counter_Motor_Steps_WriteCounter
  60              	.LVL5:
  24:main.c        ****        Step_Counter_Enable();
  61              		.loc 1 24 0
  62 0024 FFF7FEFF 		bl	Step_Counter_Enable
  63              	.LVL6:
  64              	.L2:
  25:main.c        ****        while (Counter_Motor_Steps_ReadCounter() < steps)
  65              		.loc 1 25 0 discriminator 1
  66 0028 FFF7FEFF 		bl	Counter_Motor_Steps_ReadCounter
  67              	.LVL7:
  68 002c A042     		cmp	r0, r4
  69 002e FBD3     		bcc	.L2
  26:main.c        ****         {
  27:main.c        ****             
  28:main.c        ****         }
  29:main.c        ****         Step_Counter_Stop();
  70              		.loc 1 29 0
  71 0030 FFF7FEFF 		bl	Step_Counter_Stop
  72              	.LVL8:
  30:main.c        **** }
  73              		.loc 1 30 0
  74              		@ sp needed
  75 0034 70BD     		pop	{r4, r5, r6, pc}
  76              		.cfi_endproc
  77              	.LFE35:
  78              		.size	move, .-move
  79 0036 C046     		.section	.text.main,"ax",%progbits
  80              		.align	2
  81              		.global	main
  82              		.code	16
  83              		.thumb_func
  84              		.type	main, %function
ARM GAS  C:\Users\User\AppData\Local\Temp\ccbkT9VH.s 			page 3


  85              	main:
  86              	.LFB36:
  31:main.c        **** 
  32:main.c        **** 
  33:main.c        **** int main()
  34:main.c        **** {
  87              		.loc 1 34 0
  88              		.cfi_startproc
  89              		@ args = 0, pretend = 0, frame = 32
  90              		@ frame_needed = 0, uses_anonymous_args = 0
  91 0000 70B5     		push	{r4, r5, r6, lr}
  92              		.cfi_def_cfa_offset 16
  93              		.cfi_offset 4, -16
  94              		.cfi_offset 5, -12
  95              		.cfi_offset 6, -8
  96              		.cfi_offset 14, -4
  97 0002 88B0     		sub	sp, sp, #32
  98              		.cfi_def_cfa_offset 48
  35:main.c        ****     CyGlobalIntEnable;
  99              		.loc 1 35 0
 100              		.syntax divided
 101              	@ 35 "main.c" 1
 102 0004 62B6     		CPSIE   i
 103              	@ 0 "" 2
  36:main.c        ****     
  37:main.c        ****     LCD_Start();    
 104              		.loc 1 37 0
 105              		.thumb
 106              		.syntax unified
 107 0006 FFF7FEFF 		bl	LCD_Start
 108              	.LVL9:
  38:main.c        ****     Pin_EN_Write(0);
 109              		.loc 1 38 0
 110 000a 0020     		movs	r0, #0
 111 000c FFF7FEFF 		bl	Pin_EN_Write
 112              	.LVL10:
  39:main.c        ****     uint8 arr_dir[10] = {0, 0, 1, 0, 1, 0, 1, 1, 0, 1};
  40:main.c        ****     uint16 arr_steps[10] = {6400, 800, 6400, 100, 5500, 1111, 333, 567, 3200, 6400};
 113              		.loc 1 40 0
 114 0010 1F4C     		ldr	r4, .L8
 115 0012 1422     		movs	r2, #20
 116 0014 2100     		movs	r1, r4
 117 0016 03A8     		add	r0, sp, #12
 118 0018 FFF7FEFF 		bl	memcpy
 119              	.LVL11:
  41:main.c        ****     uint8 i = 0;
  42:main.c        ****     char str[10] = {'D','e','m','o',' ', 'T', 'e', 's', 't', '!'};
 120              		.loc 1 42 0
 121 001c 2100     		movs	r1, r4
 122 001e 1431     		adds	r1, r1, #20
 123 0020 0A22     		movs	r2, #10
 124 0022 6846     		mov	r0, sp
 125 0024 FFF7FEFF 		bl	memcpy
 126              	.LVL12:
  43:main.c        ****     LCD_ClearDisplay();
 127              		.loc 1 43 0
 128 0028 0120     		movs	r0, #1
ARM GAS  C:\Users\User\AppData\Local\Temp\ccbkT9VH.s 			page 4


 129 002a FFF7FEFF 		bl	LCD_WriteControl
 130              	.LVL13:
  44:main.c        ****     if (!Stepper_Init()) 
 131              		.loc 1 44 0
 132 002e FFF7FEFF 		bl	Stepper_Init
 133              	.LVL14:
 134 0032 0028     		cmp	r0, #0
 135 0034 03D1     		bne	.L4
  45:main.c        ****     {
  46:main.c        ****         LCD_PutChar('s');
 136              		.loc 1 46 0
 137 0036 7330     		adds	r0, r0, #115
 138 0038 FFF7FEFF 		bl	LCD_PutChar
 139              	.LVL15:
 140              	.L5:
 141 003c FEE7     		b	.L5
 142              	.L4:
  47:main.c        ****         while (1){}
  48:main.c        ****     }  
  49:main.c        ****     
  50:main.c        ****     Counter_Motor_Steps_Start();
 143              		.loc 1 50 0
 144 003e FFF7FEFF 		bl	Counter_Motor_Steps_Start
 145              	.LVL16:
 146              	.L7:
  34:main.c        ****     CyGlobalIntEnable;
 147              		.loc 1 34 0
 148 0042 0024     		movs	r4, #0
 149              	.LVL17:
 150              	.L6:
 151              	.LBB2:
  51:main.c        ****     
  52:main.c        ****     
  53:main.c        ****     
  54:main.c        ****     
  55:main.c        ****     
  56:main.c        ****     for(;;)
  57:main.c        ****     {
  58:main.c        ****         char s = str[i];
 152              		.loc 1 58 0
 153 0044 6B46     		mov	r3, sp
 154 0046 1E5D     		ldrb	r6, [r3, r4]
 155              	.LVL18:
  59:main.c        ****         LCD_Position(0u, i);
 156              		.loc 1 59 0
 157 0048 2100     		movs	r1, r4
 158 004a 0020     		movs	r0, #0
 159 004c FFF7FEFF 		bl	LCD_Position
 160              	.LVL19:
  60:main.c        ****         Stepper_MoveX(false, MOTOR_1, DIR_CLOCKWISE, arr_steps[i]);
 161              		.loc 1 60 0
 162 0050 6200     		lsls	r2, r4, #1
 163 0052 03AB     		add	r3, sp, #12
 164 0054 D55A     		ldrh	r5, [r2, r3]
 165 0056 2B00     		movs	r3, r5
 166 0058 0122     		movs	r2, #1
 167 005a 0021     		movs	r1, #0
ARM GAS  C:\Users\User\AppData\Local\Temp\ccbkT9VH.s 			page 5


 168 005c 0020     		movs	r0, #0
 169 005e FFF7FEFF 		bl	Stepper_MoveX
 170              	.LVL20:
  61:main.c        ****         CyDelay(100);
 171              		.loc 1 61 0
 172 0062 6420     		movs	r0, #100
 173 0064 FFF7FEFF 		bl	CyDelay
 174              	.LVL21:
  62:main.c        ****         
  63:main.c        ****         LCD_PutChar(s);
 175              		.loc 1 63 0
 176 0068 3000     		movs	r0, r6
 177 006a FFF7FEFF 		bl	LCD_PutChar
 178              	.LVL22:
  64:main.c        ****         Stepper_MoveX(false, MOTOR_2, DIR_CLOCKWISE, arr_steps[i]);
 179              		.loc 1 64 0
 180 006e 2B00     		movs	r3, r5
 181 0070 0122     		movs	r2, #1
 182 0072 0121     		movs	r1, #1
 183 0074 0020     		movs	r0, #0
 184 0076 FFF7FEFF 		bl	Stepper_MoveX
 185              	.LVL23:
  65:main.c        ****         CyDelay(100);
 186              		.loc 1 65 0
 187 007a 6420     		movs	r0, #100
 188 007c FFF7FEFF 		bl	CyDelay
 189              	.LVL24:
  66:main.c        ****         i++;
 190              		.loc 1 66 0
 191 0080 0134     		adds	r4, r4, #1
 192              	.LVL25:
 193 0082 E4B2     		uxtb	r4, r4
 194              	.LVL26:
  67:main.c        ****         
  68:main.c        ****         if (i == 10){
 195              		.loc 1 68 0
 196 0084 0A2C     		cmp	r4, #10
 197 0086 DDD1     		bne	.L6
 198              	.LVL27:
  69:main.c        ****             i = 0;
  70:main.c        ****             LCD_ClearDisplay();
 199              		.loc 1 70 0
 200 0088 0120     		movs	r0, #1
 201 008a FFF7FEFF 		bl	LCD_WriteControl
 202              	.LVL28:
 203 008e D8E7     		b	.L7
 204              	.L9:
 205              		.align	2
 206              	.L8:
 207 0090 00000000 		.word	.LANCHOR0
 208              	.LBE2:
 209              		.cfi_endproc
 210              	.LFE36:
 211              		.size	main, .-main
 212              		.section	.rodata
 213              		.align	2
 214              		.set	.LANCHOR0,. + 0
ARM GAS  C:\Users\User\AppData\Local\Temp\ccbkT9VH.s 			page 6


 215              	.LC1:
 216 0000 0019     		.short	6400
 217 0002 2003     		.short	800
 218 0004 0019     		.short	6400
 219 0006 6400     		.short	100
 220 0008 7C15     		.short	5500
 221 000a 5704     		.short	1111
 222 000c 4D01     		.short	333
 223 000e 3702     		.short	567
 224 0010 800C     		.short	3200
 225 0012 0019     		.short	6400
 226              	.LC2:
 227 0014 44       		.byte	68
 228 0015 65       		.byte	101
 229 0016 6D       		.byte	109
 230 0017 6F       		.byte	111
 231 0018 20       		.byte	32
 232 0019 54       		.byte	84
 233 001a 65       		.byte	101
 234 001b 73       		.byte	115
 235 001c 74       		.byte	116
 236 001d 21       		.byte	33
 237              		.text
 238              	.Letext0:
 239              		.file 2 "Generated_Source\\PSoC4/cytypes.h"
 240              		.file 3 "stepper.h"
 241              		.file 4 "Generated_Source\\PSoC4/Step_Counter.h"
 242              		.file 5 "Generated_Source\\PSoC4/Motor_Control_Reg.h"
 243              		.file 6 "Generated_Source\\PSoC4/Pin_DIR_X.h"
 244              		.file 7 "Generated_Source\\PSoC4/Pin_DIR_Y.h"
 245              		.file 8 "Generated_Source\\PSoC4/Counter_Motor_Steps.h"
 246              		.file 9 "Generated_Source\\PSoC4/LCD.h"
 247              		.file 10 "Generated_Source\\PSoC4/CyLib.h"
 248              		.file 11 "Generated_Source\\PSoC4/Pin_EN.h"