ARM GAS  C:\Users\User\AppData\Local\Temp\ccSkdHCp.s 			page 1


   1              		.syntax unified
   2              		.cpu cortex-m0
   3              		.fpu softvfp
   4              		.eabi_attribute 20, 1
   5              		.eabi_attribute 21, 1
   6              		.eabi_attribute 23, 3
   7              		.eabi_attribute 24, 1
   8              		.eabi_attribute 25, 1
   9              		.eabi_attribute 26, 1
  10              		.eabi_attribute 30, 6
  11              		.eabi_attribute 34, 0
  12              		.eabi_attribute 18, 4
  13              		.thumb
  14              		.syntax unified
  15              		.file	"main.c"
  16              		.text
  17              	.Ltext0:
  18              		.cfi_sections	.debug_frame
  19              		.section	.rodata
  20              		.align	2
  21              	.LC0:
  22 0000 44656D6F 		.ascii	"Demo started\000"
  22      20737461 
  22      72746564 
  22      00
  23 000d 000000   		.align	2
  24              	.LC2:
  25 0010 3A2E3A20 		.ascii	":.: .. ::\000"
  25      2E2E203A 
  25      3A00
  26              		.section	.text.main,"ax",%progbits
  27              		.align	2
  28              		.global	main
  29              		.code	16
  30              		.thumb_func
  31              		.type	main, %function
  32              	main:
  33              	.LFB35:
  34              		.file 1 "main.c"
   1:main.c        **** #include <project.h>
   2:main.c        **** 
   3:main.c        **** 
   4:main.c        **** #define LCD_ROWS                (2u)
   5:main.c        **** #define LCD_COLUMNS             (40u)
   6:main.c        **** 
   7:main.c        **** #define BARGRAPH_DELAY_MS       (15u)
   8:main.c        **** 
   9:main.c        **** 
  10:main.c        **** 
  11:main.c        **** int main()
  12:main.c        **** {
  35              		.loc 1 12 0
  36              		.cfi_startproc
  37              		@ args = 0, pretend = 0, frame = 8
  38              		@ frame_needed = 1, uses_anonymous_args = 0
  39 0000 80B5     		push	{r7, lr}
  40              		.cfi_def_cfa_offset 8
ARM GAS  C:\Users\User\AppData\Local\Temp\ccSkdHCp.s 			page 2


  41              		.cfi_offset 7, -8
  42              		.cfi_offset 14, -4
  43 0002 82B0     		sub	sp, sp, #8
  44              		.cfi_def_cfa_offset 16
  45 0004 00AF     		add	r7, sp, #0
  46              		.cfi_def_cfa_register 7
  13:main.c        ****     uint8 row = 0u;
  47              		.loc 1 13 0
  48 0006 FB1D     		adds	r3, r7, #7
  49 0008 0022     		movs	r2, #0
  50 000a 1A70     		strb	r2, [r3]
  14:main.c        ****     uint8 column = 0u;
  51              		.loc 1 14 0
  52 000c BB1D     		adds	r3, r7, #6
  53 000e 0022     		movs	r2, #0
  54 0010 1A70     		strb	r2, [r3]
  15:main.c        ****     uint8 length = 0u;
  55              		.loc 1 15 0
  56 0012 7B1D     		adds	r3, r7, #5
  57 0014 0022     		movs	r2, #0
  58 0016 1A70     		strb	r2, [r3]
  16:main.c        ****     
  17:main.c        ****     /* Start the LCD */
  18:main.c        ****     LCD_Start();
  59              		.loc 1 18 0
  60 0018 FFF7FEFF 		bl	LCD_Start
  19:main.c        **** 
  20:main.c        ****     /* Show the demo start message */
  21:main.c        ****     LCD_Position(0u, 0u);
  61              		.loc 1 21 0
  62 001c 0021     		movs	r1, #0
  63 001e 0020     		movs	r0, #0
  64 0020 FFF7FEFF 		bl	LCD_Position
  22:main.c        ****     LCD_PrintString("Demo started");
  65              		.loc 1 22 0
  66 0024 0E4B     		ldr	r3, .L3
  67 0026 1800     		movs	r0, r3
  68 0028 FFF7FEFF 		bl	LCD_PrintString
  23:main.c        ****     CyDelay(1000u);
  69              		.loc 1 23 0
  70 002c FA23     		movs	r3, #250
  71 002e 9B00     		lsls	r3, r3, #2
  72 0030 1800     		movs	r0, r3
  73 0032 FFF7FEFF 		bl	CyDelay
  24:main.c        **** 
  25:main.c        ****     /* Clear the LCD display */
  26:main.c        ****     LCD_ClearDisplay();
  74              		.loc 1 26 0
  75 0036 0120     		movs	r0, #1
  76 0038 FFF7FEFF 		bl	LCD_WriteControl
  27:main.c        ****     
  28:main.c        **** 
  29:main.c        ****     
  30:main.c        ****     /* Wait for some time */
  31:main.c        ****     CyDelay(500u);
  77              		.loc 1 31 0
  78 003c FA23     		movs	r3, #250
ARM GAS  C:\Users\User\AppData\Local\Temp\ccSkdHCp.s 			page 3


  79 003e 5B00     		lsls	r3, r3, #1
  80 0040 1800     		movs	r0, r3
  81 0042 FFF7FEFF 		bl	CyDelay
  32:main.c        ****     
  33:main.c        ****     /* Show the demo completion message */
  34:main.c        ****     LCD_Position(0u, 0u);
  82              		.loc 1 34 0
  83 0046 0021     		movs	r1, #0
  84 0048 0020     		movs	r0, #0
  85 004a FFF7FEFF 		bl	LCD_Position
  35:main.c        ****     LCD_PrintString(":.: .. ::");
  86              		.loc 1 35 0
  87 004e 054B     		ldr	r3, .L3+4
  88 0050 1800     		movs	r0, r3
  89 0052 FFF7FEFF 		bl	LCD_PrintString
  36:main.c        ****     LCD_Position(1u, 0u);
  90              		.loc 1 36 0
  91 0056 0021     		movs	r1, #0
  92 0058 0120     		movs	r0, #1
  93 005a FFF7FEFF 		bl	LCD_Position
  94              	.L2:
  37:main.c        ****     
  38:main.c        ****     for(;;)
  39:main.c        ****     {
  40:main.c        ****         
  41:main.c        ****     }
  95              		.loc 1 41 0 discriminator 1
  96 005e FEE7     		b	.L2
  97              	.L4:
  98              		.align	2
  99              	.L3:
 100 0060 00000000 		.word	.LC0
 101 0064 10000000 		.word	.LC2
 102              		.cfi_endproc
 103              	.LFE35:
 104              		.size	main, .-main
 105              		.text
 106              	.Letext0:
 107              		.file 2 "Generated_Source\\PSoC4/cytypes.h"